Archive member included to satisfy reference by file (symbol)

c:/qmk_msys/mingw64/bin/../lib/gcc/avr/8.5.0/../../../../avr/lib/avr5\libm.a(fixunssfsi.o)
                              .build/obj_my65_default/protocol/host.o (__fixunssfsi)
c:/qmk_msys/mingw64/bin/../lib/gcc/avr/8.5.0/../../../../avr/lib/avr5\libm.a(fp_split3.o)
                              c:/qmk_msys/mingw64/bin/../lib/gcc/avr/8.5.0/../../../../avr/lib/avr5\libm.a(fixunssfsi.o) (__fp_splitA)
c:/qmk_msys/mingw64/bin/../lib/gcc/avr/8.5.0/../../../../avr/lib/avr5\libm.a(fp_zero.o)
                              c:/qmk_msys/mingw64/bin/../lib/gcc/avr/8.5.0/../../../../avr/lib/avr5\libm.a(fixunssfsi.o) (__fp_zero)
c:/qmk_msys/mingw64/bin/../lib/gcc/avr/8.5.0/../../../../avr/lib/avr5\libm.a(mulsf3.o)
                              .build/obj_my65_default/protocol/host.o (__mulsf3)
c:/qmk_msys/mingw64/bin/../lib/gcc/avr/8.5.0/../../../../avr/lib/avr5\libm.a(mulsf3x.o)
                              c:/qmk_msys/mingw64/bin/../lib/gcc/avr/8.5.0/../../../../avr/lib/avr5\libm.a(mulsf3.o) (__mulsf3x)
c:/qmk_msys/mingw64/bin/../lib/gcc/avr/8.5.0/../../../../avr/lib/avr5\libm.a(fp_inf.o)
                              c:/qmk_msys/mingw64/bin/../lib/gcc/avr/8.5.0/../../../../avr/lib/avr5\libm.a(mulsf3x.o) (__fp_inf)
c:/qmk_msys/mingw64/bin/../lib/gcc/avr/8.5.0/../../../../avr/lib/avr5\libm.a(fp_nan.o)
                              c:/qmk_msys/mingw64/bin/../lib/gcc/avr/8.5.0/../../../../avr/lib/avr5\libm.a(mulsf3x.o) (__fp_nan)
c:/qmk_msys/mingw64/bin/../lib/gcc/avr/8.5.0/../../../../avr/lib/avr5\libm.a(fp_pscA.o)
                              c:/qmk_msys/mingw64/bin/../lib/gcc/avr/8.5.0/../../../../avr/lib/avr5\libm.a(mulsf3x.o) (__fp_pscA)
c:/qmk_msys/mingw64/bin/../lib/gcc/avr/8.5.0/../../../../avr/lib/avr5\libm.a(fp_pscB.o)
                              c:/qmk_msys/mingw64/bin/../lib/gcc/avr/8.5.0/../../../../avr/lib/avr5\libm.a(mulsf3x.o) (__fp_pscB)
c:/qmk_msys/mingw64/bin/../lib/gcc/avr/8.5.0/../../../../avr/lib/avr5\libm.a(fp_round.o)
                              c:/qmk_msys/mingw64/bin/../lib/gcc/avr/8.5.0/../../../../avr/lib/avr5\libm.a(mulsf3.o) (__fp_round)
c:/qmk_msys/mingw64/bin/../lib/gcc/avr/8.5.0/avr5\libgcc.a(_udivmodqi4.o)
                              .build/obj_my65_default/lufa.o (__udivmodqi4)
c:/qmk_msys/mingw64/bin/../lib/gcc/avr/8.5.0/avr5\libgcc.a(_divmodhi4.o)
                              .build/obj_my65_default/quantum/mousekey.o (__divmodhi4)
c:/qmk_msys/mingw64/bin/../lib/gcc/avr/8.5.0/avr5\libgcc.a(_udivmodsi4.o)
                              .build/obj_my65_default/quantum/quantum.o (__udivmodsi4)
c:/qmk_msys/mingw64/bin/../lib/gcc/avr/8.5.0/avr5\libgcc.a(_exit.o)
                              c:/qmk_msys/mingw64/bin/../lib/gcc/avr/8.5.0/../../../../avr/lib/avr5/crtatmega32u4.o (exit)
c:/qmk_msys/mingw64/bin/../lib/gcc/avr/8.5.0/avr5\libgcc.a(_tablejump2.o)
                              .build/obj_my65_default/quantum/action.o (__tablejump2__)
c:/qmk_msys/mingw64/bin/../lib/gcc/avr/8.5.0/avr5\libgcc.a(_copy_data.o)
                              .build/obj_my65_default/quantum/quantum.o (__do_copy_data)
c:/qmk_msys/mingw64/bin/../lib/gcc/avr/8.5.0/avr5\libgcc.a(_clear_bss.o)
                              .build/obj_my65_default/quantum/quantum.o (__do_clear_bss)
c:/qmk_msys/mingw64/bin/../lib/gcc/avr/8.5.0/avr5\libgcc.a(_bswapsi2.o)
                              .build/obj_my65_default/quantum/via.o (__bswapsi2)
c:/qmk_msys/mingw64/bin/../lib/gcc/avr/8.5.0/avr5\libgcc.a(_prologue.o)
                              .build/obj_my65_default/quantum/quantum.o (__prologue_saves__)
c:/qmk_msys/mingw64/bin/../lib/gcc/avr/8.5.0/avr5\libgcc.a(_epilogue.o)
                              .build/obj_my65_default/quantum/quantum.o (__epilogue_restores__)
c:/qmk_msys/mingw64/bin/../lib/gcc/avr/8.5.0/avr5\libgcc.a(_udivmodhi4.o)
                              c:/qmk_msys/mingw64/bin/../lib/gcc/avr/8.5.0/avr5\libgcc.a(_divmodhi4.o) (__udivmodhi4)
c:/qmk_msys/mingw64/bin/../lib/gcc/avr/8.5.0/../../../../avr/lib/avr5\libc.a(memcmp.o)
                              .build/obj_my65_default/quantum/action_util.o (memcmp)
c:/qmk_msys/mingw64/bin/../lib/gcc/avr/8.5.0/../../../../avr/lib/avr5\libc.a(memcpy.o)
                              .build/obj_my65_default/quantum/debounce/sym_defer_g.o (memcpy)
c:/qmk_msys/mingw64/bin/../lib/gcc/avr/8.5.0/../../../../avr/lib/avr5\libatmega32u4.a(eerd_byte.o)
                              .build/obj_my65_default/quantum/eeconfig.o (eeprom_read_byte)
c:/qmk_msys/mingw64/bin/../lib/gcc/avr/8.5.0/../../../../avr/lib/avr5\libatmega32u4.a(eerd_dword.o)
                              .build/obj_my65_default/quantum/eeconfig.o (eeprom_read_dword)
c:/qmk_msys/mingw64/bin/../lib/gcc/avr/8.5.0/../../../../avr/lib/avr5\libatmega32u4.a(eerd_word.o)
                              .build/obj_my65_default/quantum/eeconfig.o (eeprom_read_word)
c:/qmk_msys/mingw64/bin/../lib/gcc/avr/8.5.0/../../../../avr/lib/avr5\libatmega32u4.a(eeupd_byte.o)
                              .build/obj_my65_default/quantum/eeconfig.o (eeprom_update_byte)
c:/qmk_msys/mingw64/bin/../lib/gcc/avr/8.5.0/../../../../avr/lib/avr5\libatmega32u4.a(eeupd_dword.o)
                              .build/obj_my65_default/quantum/eeconfig.o (eeprom_update_dword)
c:/qmk_msys/mingw64/bin/../lib/gcc/avr/8.5.0/../../../../avr/lib/avr5\libatmega32u4.a(eeupd_word.o)
                              .build/obj_my65_default/quantum/eeconfig.o (eeprom_update_word)
c:/qmk_msys/mingw64/bin/../lib/gcc/avr/8.5.0/../../../../avr/lib/avr5\libatmega32u4.a(eerd_block.o)
                              c:/qmk_msys/mingw64/bin/../lib/gcc/avr/8.5.0/../../../../avr/lib/avr5\libatmega32u4.a(eerd_dword.o) (eeprom_read_blraw)

Allocating common symbols
Common symbol       size              file

USB_IsInitialized   0x1               .build/obj_my65_default/lib/lufa/LUFA/Drivers/USB/Core/USBTask.o
keymap_config       0x2               .build/obj_my65_default/quantum/bootmagic/magic.o
USB_DeviceState     0x1               .build/obj_my65_default/lib/lufa/LUFA/Drivers/USB/Core/USBTask.o
USB_Device_ConfigurationNumber
                    0x1               .build/obj_my65_default/lib/lufa/LUFA/Drivers/USB/Core/DeviceStandardReq.o
raw_matrix          0xc               .build/obj_my65_default/quantum/matrix_common.o
USB_Device_CurrentlySelfPowered
                    0x1               .build/obj_my65_default/lib/lufa/LUFA/Drivers/USB/Core/DeviceStandardReq.o
matrix              0xc               .build/obj_my65_default/quantum/matrix_common.o
USB_ControlRequest  0x8               .build/obj_my65_default/lib/lufa/LUFA/Drivers/USB/Core/USBTask.o
tp_buttons          0x2               .build/obj_my65_default/quantum/action.o
USB_Device_RemoteWakeupEnabled
                    0x1               .build/obj_my65_default/lib/lufa/LUFA/Drivers/USB/Core/DeviceStandardReq.o
timer_count         0x4               .build/obj_my65_default/platforms/avr/timer.o

Discarded input sections

 .data          0x0000000000000000        0x0 c:/qmk_msys/mingw64/bin/../lib/gcc/avr/8.5.0/../../../../avr/lib/avr5/crtatmega32u4.o
 .bss           0x0000000000000000        0x0 c:/qmk_msys/mingw64/bin/../lib/gcc/avr/8.5.0/../../../../avr/lib/avr5/crtatmega32u4.o
 .text          0x0000000000000000        0x0 .build/obj_my65_default/keyboards/my65/my65.o
 .data          0x0000000000000000        0x0 .build/obj_my65_default/keyboards/my65/my65.o
 .bss           0x0000000000000000        0x0 .build/obj_my65_default/keyboards/my65/my65.o
 .debug_info    0x0000000000000000      0x5b1 .build/obj_my65_default/keyboards/my65/my65.o
 .debug_abbrev  0x0000000000000000      0x126 .build/obj_my65_default/keyboards/my65/my65.o
 .debug_aranges
                0x0000000000000000       0x18 .build/obj_my65_default/keyboards/my65/my65.o
 .debug_line    0x0000000000000000      0x19f .build/obj_my65_default/keyboards/my65/my65.o
 .debug_str     0x0000000000000000      0x5ba .build/obj_my65_default/keyboards/my65/my65.o
 .comment       0x0000000000000000       0x12 .build/obj_my65_default/keyboards/my65/my65.o
 .text          0x0000000000000000        0x0 .build/obj_my65_default/.build/obj_my65/src/default_keyboard.o
 .data          0x0000000000000000        0x0 .build/obj_my65_default/.build/obj_my65/src/default_keyboard.o
 .bss           0x0000000000000000        0x0 .build/obj_my65_default/.build/obj_my65/src/default_keyboard.o
 .debug_info    0x0000000000000000      0x5b1 .build/obj_my65_default/.build/obj_my65/src/default_keyboard.o
 .debug_abbrev  0x0000000000000000      0x126 .build/obj_my65_default/.build/obj_my65/src/default_keyboard.o
 .debug_aranges
                0x0000000000000000       0x18 .build/obj_my65_default/.build/obj_my65/src/default_keyboard.o
 .debug_line    0x0000000000000000      0x19f .build/obj_my65_default/.build/obj_my65/src/default_keyboard.o
 .debug_str     0x0000000000000000      0x5cb .build/obj_my65_default/.build/obj_my65/src/default_keyboard.o
 .comment       0x0000000000000000       0x12 .build/obj_my65_default/.build/obj_my65/src/default_keyboard.o
 .text          0x0000000000000000        0x0 .build/obj_my65_default/quantum/keymap_introspection.o
 .data          0x0000000000000000        0x0 .build/obj_my65_default/quantum/keymap_introspection.o
 .bss           0x0000000000000000        0x0 .build/obj_my65_default/quantum/keymap_introspection.o
 .text          0x0000000000000000        0x0 .build/obj_my65_default/quantum/quantum.o
 .data          0x0000000000000000        0x0 .build/obj_my65_default/quantum/quantum.o
 .bss           0x0000000000000000        0x0 .build/obj_my65_default/quantum/quantum.o
 .text.extract_mod_bits
                0x0000000000000000       0x62 .build/obj_my65_default/quantum/quantum.o
 .text.do_code16
                0x0000000000000000       0x14 .build/obj_my65_default/quantum/quantum.o
 .text.register_code16
                0x0000000000000000       0x2c .build/obj_my65_default/quantum/quantum.o
 .text.unregister_code16
                0x0000000000000000       0x2c .build/obj_my65_default/quantum/quantum.o
 .text.tap_code16_delay
                0x0000000000000000       0x34 .build/obj_my65_default/quantum/quantum.o
 .text.tap_code16
                0x0000000000000000       0x14 .build/obj_my65_default/quantum/quantum.o
 .text.set_single_persistent_default_layer
                0x0000000000000000       0x22 .build/obj_my65_default/quantum/quantum.o
 .text.startup_user
                0x0000000000000000        0x2 .build/obj_my65_default/quantum/quantum.o
 .text.get_numeric_str
                0x0000000000000000       0xb0 .build/obj_my65_default/quantum/quantum.o
 .text.get_u8_str
                0x0000000000000000       0x3a .build/obj_my65_default/quantum/quantum.o
 .text.get_u16_str
                0x0000000000000000       0x42 .build/obj_my65_default/quantum/quantum.o
 .bss.buf.4135  0x0000000000000000        0x6 .build/obj_my65_default/quantum/quantum.o
 .bss.last_pad.4137
                0x0000000000000000        0x1 .build/obj_my65_default/quantum/quantum.o
 .data.last_num.4136
                0x0000000000000000        0x2 .build/obj_my65_default/quantum/quantum.o
 .bss.buf.4128  0x0000000000000000        0x4 .build/obj_my65_default/quantum/quantum.o
 .bss.last_pad.4130
                0x0000000000000000        0x1 .build/obj_my65_default/quantum/quantum.o
 .data.last_num.4129
                0x0000000000000000        0x1 .build/obj_my65_default/quantum/quantum.o
 .text          0x0000000000000000        0x0 .build/obj_my65_default/quantum/bitwise.o
 .data          0x0000000000000000        0x0 .build/obj_my65_default/quantum/bitwise.o
 .bss           0x0000000000000000        0x0 .build/obj_my65_default/quantum/bitwise.o
 .text.bitpop   0x0000000000000000       0x14 .build/obj_my65_default/quantum/bitwise.o
 .text.bitpop16
                0x0000000000000000       0x18 .build/obj_my65_default/quantum/bitwise.o
 .text.bitpop32
                0x0000000000000000       0x3a .build/obj_my65_default/quantum/bitwise.o
 .text.biton    0x0000000000000000       0x22 .build/obj_my65_default/quantum/bitwise.o
 .text.biton16  0x0000000000000000       0x48 .build/obj_my65_default/quantum/bitwise.o
 .text.biton32  0x0000000000000000       0x9a .build/obj_my65_default/quantum/bitwise.o
 .text.bitrev32
                0x0000000000000000       0x42 .build/obj_my65_default/quantum/bitwise.o
 .text          0x0000000000000000        0x0 .build/obj_my65_default/quantum/led.o
 .data          0x0000000000000000        0x0 .build/obj_my65_default/quantum/led.o
 .bss           0x0000000000000000        0x0 .build/obj_my65_default/quantum/led.o
 .text.last_led_activity_time
                0x0000000000000000       0x12 .build/obj_my65_default/quantum/led.o
 .text.last_led_activity_elapsed
                0x0000000000000000       0x16 .build/obj_my65_default/quantum/led.o
 .text          0x0000000000000000        0x0 .build/obj_my65_default/quantum/action.o
 .data          0x0000000000000000        0x0 .build/obj_my65_default/quantum/action.o
 .bss           0x0000000000000000        0x0 .build/obj_my65_default/quantum/action.o
 .text.process_record_quantum
                0x0000000000000000        0x4 .build/obj_my65_default/quantum/action.o
 .text.pre_process_record_quantum
                0x0000000000000000        0x6 .build/obj_my65_default/quantum/action.o
 .text.post_process_record_quantum
                0x0000000000000000        0x2 .build/obj_my65_default/quantum/action.o
 .text.process_record_nocache
                0x0000000000000000       0x10 .build/obj_my65_default/quantum/action.o
 .text.register_weak_mods
                0x0000000000000000        0xe .build/obj_my65_default/quantum/action.o
 .text.unregister_weak_mods
                0x0000000000000000        0xe .build/obj_my65_default/quantum/action.o
 .text.debug_action
                0x0000000000000000        0x2 .build/obj_my65_default/quantum/action.o
 COMMON         0x0000000000000000        0x2 .build/obj_my65_default/quantum/action.o
 .text          0x0000000000000000        0x0 .build/obj_my65_default/quantum/action_layer.o
 .data          0x0000000000000000        0x0 .build/obj_my65_default/quantum/action_layer.o
 .bss           0x0000000000000000        0x0 .build/obj_my65_default/quantum/action_layer.o
 .text.layer_state_cmp
                0x0000000000000000       0x1e .build/obj_my65_default/quantum/action_layer.o
 .text.layer_state_is
                0x0000000000000000        0xc .build/obj_my65_default/quantum/action_layer.o
 .text          0x0000000000000000        0x0 .build/obj_my65_default/quantum/action_tapping.o
 .data          0x0000000000000000        0x0 .build/obj_my65_default/quantum/action_tapping.o
 .bss           0x0000000000000000        0x0 .build/obj_my65_default/quantum/action_tapping.o
 .text          0x0000000000000000        0x0 .build/obj_my65_default/quantum/action_util.o
 .data          0x0000000000000000        0x0 .build/obj_my65_default/quantum/action_util.o
 .bss           0x0000000000000000        0x0 .build/obj_my65_default/quantum/action_util.o
 .text.get_oneshot_locked_mods
                0x0000000000000000        0x6 .build/obj_my65_default/quantum/action_util.o
 .text.has_oneshot_mods_timed_out
                0x0000000000000000        0x4 .build/obj_my65_default/quantum/action_util.o
 .text.is_oneshot_enabled
                0x0000000000000000        0xc .build/obj_my65_default/quantum/action_util.o
 .text.set_mods
                0x0000000000000000        0x6 .build/obj_my65_default/quantum/action_util.o
 .text.get_weak_mods
                0x0000000000000000        0x6 .build/obj_my65_default/quantum/action_util.o
 .text.set_weak_mods
                0x0000000000000000        0x6 .build/obj_my65_default/quantum/action_util.o
 .text.oneshot_locked_mods_changed_user
                0x0000000000000000        0x2 .build/obj_my65_default/quantum/action_util.o
 .text.oneshot_locked_mods_changed_kb
                0x0000000000000000        0x6 .build/obj_my65_default/quantum/action_util.o
 .text.set_oneshot_locked_mods
                0x0000000000000000       0x12 .build/obj_my65_default/quantum/action_util.o
 .text.clear_oneshot_locked_mods
                0x0000000000000000       0x14 .build/obj_my65_default/quantum/action_util.o
 .text.add_oneshot_mods
                0x0000000000000000       0x18 .build/obj_my65_default/quantum/action_util.o
 .text.del_oneshot_mods
                0x0000000000000000       0x18 .build/obj_my65_default/quantum/action_util.o
 .text.has_anymod
                0x0000000000000000        0xa .build/obj_my65_default/quantum/action_util.o
 .bss.oneshot_locked_mods
                0x0000000000000000        0x1 .build/obj_my65_default/quantum/action_util.o
 .text          0x0000000000000000        0x0 .build/obj_my65_default/quantum/eeconfig.o
 .data          0x0000000000000000        0x0 .build/obj_my65_default/quantum/eeconfig.o
 .bss           0x0000000000000000        0x0 .build/obj_my65_default/quantum/eeconfig.o
 .text.eeconfig_enable
                0x0000000000000000        0xe .build/obj_my65_default/quantum/eeconfig.o
 .text.eeconfig_is_disabled
                0x0000000000000000       0x1a .build/obj_my65_default/quantum/eeconfig.o
 .text.eeconfig_update_debug
                0x0000000000000000        0xc .build/obj_my65_default/quantum/eeconfig.o
 .text.eeconfig_update_default_layer
                0x0000000000000000        0xc .build/obj_my65_default/quantum/eeconfig.o
 .text.eeconfig_read_audio
                0x0000000000000000        0xa .build/obj_my65_default/quantum/eeconfig.o
 .text.eeconfig_update_audio
                0x0000000000000000        0xc .build/obj_my65_default/quantum/eeconfig.o
 .text.eeconfig_read_kb
                0x0000000000000000        0xa .build/obj_my65_default/quantum/eeconfig.o
 .text.eeconfig_read_user
                0x0000000000000000        0xa .build/obj_my65_default/quantum/eeconfig.o
 .text.eeconfig_read_haptic
                0x0000000000000000        0xa .build/obj_my65_default/quantum/eeconfig.o
 .text.eeconfig_update_haptic
                0x0000000000000000        0xe .build/obj_my65_default/quantum/eeconfig.o
 .text.eeconfig_read_handedness
                0x0000000000000000       0x14 .build/obj_my65_default/quantum/eeconfig.o
 .text          0x0000000000000000        0x0 .build/obj_my65_default/quantum/keyboard.o
 .data          0x0000000000000000        0x0 .build/obj_my65_default/quantum/keyboard.o
 .bss           0x0000000000000000        0x0 .build/obj_my65_default/quantum/keyboard.o
 .text.last_input_activity_time
                0x0000000000000000       0x12 .build/obj_my65_default/quantum/keyboard.o
 .text.last_input_activity_elapsed
                0x0000000000000000       0x16 .build/obj_my65_default/quantum/keyboard.o
 .text.last_matrix_activity_time
                0x0000000000000000       0x12 .build/obj_my65_default/quantum/keyboard.o
 .text.last_matrix_activity_elapsed
                0x0000000000000000       0x16 .build/obj_my65_default/quantum/keyboard.o
 .text.last_encoder_activity_time
                0x0000000000000000       0x12 .build/obj_my65_default/quantum/keyboard.o
 .text.last_encoder_activity_elapsed
                0x0000000000000000       0x16 .build/obj_my65_default/quantum/keyboard.o
 .text.last_encoder_activity_trigger
                0x0000000000000000       0x26 .build/obj_my65_default/quantum/keyboard.o
 .text.is_keyboard_left
                0x0000000000000000        0x6 .build/obj_my65_default/quantum/keyboard.o
 .text.switch_events
                0x0000000000000000        0x2 .build/obj_my65_default/quantum/keyboard.o
 .text.quantum_task
                0x0000000000000000        0x2 .build/obj_my65_default/quantum/keyboard.o
 .bss.last_encoder_modification_time
                0x0000000000000000        0x4 .build/obj_my65_default/quantum/keyboard.o
 .text          0x0000000000000000        0x0 .build/obj_my65_default/quantum/keymap_common.o
 .data          0x0000000000000000        0x0 .build/obj_my65_default/quantum/keymap_common.o
 .bss           0x0000000000000000        0x0 .build/obj_my65_default/quantum/keymap_common.o
 .text.keymap_key_to_keycode
                0x0000000000000000       0x38 .build/obj_my65_default/quantum/keymap_common.o
 .text          0x0000000000000000        0x0 .build/obj_my65_default/quantum/keycode_config.o
 .data          0x0000000000000000        0x0 .build/obj_my65_default/quantum/keycode_config.o
 .bss           0x0000000000000000        0x0 .build/obj_my65_default/quantum/keycode_config.o
 .text          0x0000000000000000        0x0 .build/obj_my65_default/quantum/sync_timer.o
 .data          0x0000000000000000        0x0 .build/obj_my65_default/quantum/sync_timer.o
 .bss           0x0000000000000000        0x0 .build/obj_my65_default/quantum/sync_timer.o
 .debug_info    0x0000000000000000       0x7c .build/obj_my65_default/quantum/sync_timer.o
 .debug_abbrev  0x0000000000000000       0x4f .build/obj_my65_default/quantum/sync_timer.o
 .debug_aranges
                0x0000000000000000       0x18 .build/obj_my65_default/quantum/sync_timer.o
 .debug_line    0x0000000000000000       0x5e .build/obj_my65_default/quantum/sync_timer.o
 .debug_str     0x0000000000000000      0x1c3 .build/obj_my65_default/quantum/sync_timer.o
 .comment       0x0000000000000000       0x12 .build/obj_my65_default/quantum/sync_timer.o
 .text          0x0000000000000000        0x0 .build/obj_my65_default/quantum/logging/debug.o
 .data          0x0000000000000000        0x0 .build/obj_my65_default/quantum/logging/debug.o
 .bss           0x0000000000000000        0x0 .build/obj_my65_default/quantum/logging/debug.o
 .text          0x0000000000000000        0x0 .build/obj_my65_default/quantum/logging/sendchar.o
 .data          0x0000000000000000        0x0 .build/obj_my65_default/quantum/logging/sendchar.o
 .bss           0x0000000000000000        0x0 .build/obj_my65_default/quantum/logging/sendchar.o
 .text.sendchar
                0x0000000000000000        0x4 .build/obj_my65_default/quantum/logging/sendchar.o
 .debug_info    0x0000000000000000       0xa8 .build/obj_my65_default/quantum/logging/sendchar.o
 .debug_abbrev  0x0000000000000000       0x6b .build/obj_my65_default/quantum/logging/sendchar.o
 .debug_loc     0x0000000000000000       0x25 .build/obj_my65_default/quantum/logging/sendchar.o
 .debug_aranges
                0x0000000000000000       0x20 .build/obj_my65_default/quantum/logging/sendchar.o
 .debug_ranges  0x0000000000000000       0x10 .build/obj_my65_default/quantum/logging/sendchar.o
 .debug_line    0x0000000000000000       0x90 .build/obj_my65_default/quantum/logging/sendchar.o
 .debug_str     0x0000000000000000      0x1c6 .build/obj_my65_default/quantum/logging/sendchar.o
 .comment       0x0000000000000000       0x12 .build/obj_my65_default/quantum/logging/sendchar.o
 .debug_frame   0x0000000000000000       0x24 .build/obj_my65_default/quantum/logging/sendchar.o
 .text          0x0000000000000000        0x0 .build/obj_my65_default/quantum/bootmagic/bootmagic_lite.o
 .data          0x0000000000000000        0x0 .build/obj_my65_default/quantum/bootmagic/bootmagic_lite.o
 .bss           0x0000000000000000        0x0 .build/obj_my65_default/quantum/bootmagic/bootmagic_lite.o
 .text          0x0000000000000000        0x0 .build/obj_my65_default/quantum/bootmagic/magic.o
 .data          0x0000000000000000        0x0 .build/obj_my65_default/quantum/bootmagic/magic.o
 .bss           0x0000000000000000        0x0 .build/obj_my65_default/quantum/bootmagic/magic.o
 .text.bootmagic
                0x0000000000000000        0x2 .build/obj_my65_default/quantum/bootmagic/magic.o
 .text          0x0000000000000000        0x0 .build/obj_my65_default/quantum/matrix_common.o
 .data          0x0000000000000000        0x0 .build/obj_my65_default/quantum/matrix_common.o
 .bss           0x0000000000000000        0x0 .build/obj_my65_default/quantum/matrix_common.o
 .text.matrix_rows
                0x0000000000000000        0x4 .build/obj_my65_default/quantum/matrix_common.o
 .text.matrix_cols
                0x0000000000000000        0x4 .build/obj_my65_default/quantum/matrix_common.o
 .text.matrix_is_on
                0x0000000000000000       0x2c .build/obj_my65_default/quantum/matrix_common.o
 .text.matrix_init_custom
                0x0000000000000000        0x2 .build/obj_my65_default/quantum/matrix_common.o
 .text.matrix_scan_custom
                0x0000000000000000        0x4 .build/obj_my65_default/quantum/matrix_common.o
 .text.matrix_init
                0x0000000000000000       0x28 .build/obj_my65_default/quantum/matrix_common.o
 .text.matrix_scan
                0x0000000000000000       0x26 .build/obj_my65_default/quantum/matrix_common.o
 .text.peek_matrix
                0x0000000000000000       0x36 .build/obj_my65_default/quantum/matrix_common.o
 .text          0x0000000000000000        0x0 .build/obj_my65_default/quantum/matrix.o
 .data          0x0000000000000000        0x0 .build/obj_my65_default/quantum/matrix.o
 .bss           0x0000000000000000        0x0 .build/obj_my65_default/quantum/matrix.o
 .text          0x0000000000000000        0x0 .build/obj_my65_default/quantum/debounce/sym_defer_g.o
 .data          0x0000000000000000        0x0 .build/obj_my65_default/quantum/debounce/sym_defer_g.o
 .bss           0x0000000000000000        0x0 .build/obj_my65_default/quantum/debounce/sym_defer_g.o
 .text.debounce_free
                0x0000000000000000        0x2 .build/obj_my65_default/quantum/debounce/sym_defer_g.o
 .text          0x0000000000000000        0x0 .build/obj_my65_default/quantum/main.o
 .data          0x0000000000000000        0x0 .build/obj_my65_default/quantum/main.o
 .bss           0x0000000000000000        0x0 .build/obj_my65_default/quantum/main.o
 .text          0x0000000000000000        0x0 .build/obj_my65_default/quantum/mousekey.o
 .data          0x0000000000000000        0x0 .build/obj_my65_default/quantum/mousekey.o
 .bss           0x0000000000000000        0x0 .build/obj_my65_default/quantum/mousekey.o
 .text.mousekey_get_report
                0x0000000000000000       0x36 .build/obj_my65_default/quantum/mousekey.o
 .text          0x0000000000000000        0x0 .build/obj_my65_default/quantum/via.o
 .data          0x0000000000000000        0x0 .build/obj_my65_default/quantum/via.o
 .bss           0x0000000000000000        0x0 .build/obj_my65_default/quantum/via.o
 .text          0x0000000000000000        0x0 .build/obj_my65_default/quantum/process_keycode/process_magic.o
 .data          0x0000000000000000        0x0 .build/obj_my65_default/quantum/process_keycode/process_magic.o
 .bss           0x0000000000000000        0x0 .build/obj_my65_default/quantum/process_keycode/process_magic.o
 .text          0x0000000000000000        0x0 .build/obj_my65_default/quantum/send_string/send_string.o
 .data          0x0000000000000000        0x0 .build/obj_my65_default/quantum/send_string/send_string.o
 .bss           0x0000000000000000        0x0 .build/obj_my65_default/quantum/send_string/send_string.o
 .text.send_string
                0x0000000000000000        0x8 .build/obj_my65_default/quantum/send_string/send_string.o
 .text.send_nibble
                0x0000000000000000       0x16 .build/obj_my65_default/quantum/send_string/send_string.o
 .text.send_byte
                0x0000000000000000       0x18 .build/obj_my65_default/quantum/send_string/send_string.o
 .text.send_word
                0x0000000000000000       0x14 .build/obj_my65_default/quantum/send_string/send_string.o
 .text.send_dword
                0x0000000000000000       0x1e .build/obj_my65_default/quantum/send_string/send_string.o
 .text.tap_random_base64
                0x0000000000000000       0x58 .build/obj_my65_default/quantum/send_string/send_string.o
 .text.send_string_with_delay_P
                0x0000000000000000       0xd0 .build/obj_my65_default/quantum/send_string/send_string.o
 .text.send_string_P
                0x0000000000000000        0x8 .build/obj_my65_default/quantum/send_string/send_string.o
 .text          0x0000000000000000        0x0 .build/obj_my65_default/quantum/command.o
 .data          0x0000000000000000        0x0 .build/obj_my65_default/quantum/command.o
 .bss           0x0000000000000000        0x0 .build/obj_my65_default/quantum/command.o
 .text          0x0000000000000000        0x0 .build/obj_my65_default/quantum/dynamic_keymap.o
 .data          0x0000000000000000        0x0 .build/obj_my65_default/quantum/dynamic_keymap.o
 .bss           0x0000000000000000        0x0 .build/obj_my65_default/quantum/dynamic_keymap.o
 .text          0x0000000000000000        0x0 .build/obj_my65_default/quantum/process_keycode/process_grave_esc.o
 .data          0x0000000000000000        0x0 .build/obj_my65_default/quantum/process_keycode/process_grave_esc.o
 .bss           0x0000000000000000        0x0 .build/obj_my65_default/quantum/process_keycode/process_grave_esc.o
 .text          0x0000000000000000        0x0 .build/obj_my65_default/quantum/process_keycode/process_space_cadet.o
 .data          0x0000000000000000        0x0 .build/obj_my65_default/quantum/process_keycode/process_space_cadet.o
 .bss           0x0000000000000000        0x0 .build/obj_my65_default/quantum/process_keycode/process_space_cadet.o
 .data          0x0000000000000000        0x0 .build/obj_my65_default/platforms/avr/xprintf.o
 .text          0x0000000000000000        0x0 .build/obj_my65_default/platforms/avr/printf.o
 .data          0x0000000000000000        0x0 .build/obj_my65_default/platforms/avr/printf.o
 .bss           0x0000000000000000        0x0 .build/obj_my65_default/platforms/avr/printf.o
 .text          0x0000000000000000        0x0 .build/obj_my65_default/protocol/host.o
 .data          0x0000000000000000        0x0 .build/obj_my65_default/protocol/host.o
 .bss           0x0000000000000000        0x0 .build/obj_my65_default/protocol/host.o
 .text.host_get_driver
                0x0000000000000000        0xa .build/obj_my65_default/protocol/host.o
 .text.host_keyboard_led_state
                0x0000000000000000        0x6 .build/obj_my65_default/protocol/host.o
 .text.send_digitizer
                0x0000000000000000        0x2 .build/obj_my65_default/protocol/host.o
 .text.host_digitizer_send
                0x0000000000000000       0x72 .build/obj_my65_default/protocol/host.o
 .text.host_programmable_button_send
                0x0000000000000000       0x48 .build/obj_my65_default/protocol/host.o
 .text.host_last_system_report
                0x0000000000000000        0xa .build/obj_my65_default/protocol/host.o
 .text.host_last_consumer_report
                0x0000000000000000        0xa .build/obj_my65_default/protocol/host.o
 .text.host_last_programmable_button_report
                0x0000000000000000       0x12 .build/obj_my65_default/protocol/host.o
 .bss.last_programmable_button_report
                0x0000000000000000        0x4 .build/obj_my65_default/protocol/host.o
 .text          0x0000000000000000        0x0 .build/obj_my65_default/protocol/report.o
 .data          0x0000000000000000        0x0 .build/obj_my65_default/protocol/report.o
 .bss           0x0000000000000000        0x0 .build/obj_my65_default/protocol/report.o
 .text.get_first_key
                0x0000000000000000        0x6 .build/obj_my65_default/protocol/report.o
 .text          0x0000000000000000        0x0 .build/obj_my65_default/protocol/usb_device_state.o
 .data          0x0000000000000000        0x0 .build/obj_my65_default/protocol/usb_device_state.o
 .bss           0x0000000000000000        0x0 .build/obj_my65_default/protocol/usb_device_state.o
 .text          0x0000000000000000        0x0 .build/obj_my65_default/protocol/usb_util.o
 .data          0x0000000000000000        0x0 .build/obj_my65_default/protocol/usb_util.o
 .bss           0x0000000000000000        0x0 .build/obj_my65_default/protocol/usb_util.o
 .text.usb_disconnect
                0x0000000000000000        0x2 .build/obj_my65_default/protocol/usb_util.o
 .text.usb_connected_state
                0x0000000000000000        0x4 .build/obj_my65_default/protocol/usb_util.o
 .text.usb_vbus_state
                0x0000000000000000        0x4 .build/obj_my65_default/protocol/usb_util.o
 .debug_info    0x0000000000000000      0x603 .build/obj_my65_default/protocol/usb_util.o
 .debug_abbrev  0x0000000000000000      0x17e .build/obj_my65_default/protocol/usb_util.o
 .debug_aranges
                0x0000000000000000       0x28 .build/obj_my65_default/protocol/usb_util.o
 .debug_ranges  0x0000000000000000       0x18 .build/obj_my65_default/protocol/usb_util.o
 .debug_line    0x0000000000000000      0x1f3 .build/obj_my65_default/protocol/usb_util.o
 .debug_str     0x0000000000000000      0x5f3 .build/obj_my65_default/protocol/usb_util.o
 .comment       0x0000000000000000       0x12 .build/obj_my65_default/protocol/usb_util.o
 .debug_frame   0x0000000000000000       0x44 .build/obj_my65_default/protocol/usb_util.o
 .text          0x0000000000000000        0x0 .build/obj_my65_default/platforms/suspend.o
 .data          0x0000000000000000        0x0 .build/obj_my65_default/platforms/suspend.o
 .bss           0x0000000000000000        0x0 .build/obj_my65_default/platforms/suspend.o
 .text          0x0000000000000000        0x0 .build/obj_my65_default/platforms/avr/hardware_id.o
 .data          0x0000000000000000        0x0 .build/obj_my65_default/platforms/avr/hardware_id.o
 .bss           0x0000000000000000        0x0 .build/obj_my65_default/platforms/avr/hardware_id.o
 .text.get_hardware_id
                0x0000000000000000       0x4e .build/obj_my65_default/platforms/avr/hardware_id.o
 .debug_info    0x0000000000000000      0x122 .build/obj_my65_default/platforms/avr/hardware_id.o
 .debug_abbrev  0x0000000000000000       0xcb .build/obj_my65_default/platforms/avr/hardware_id.o
 .debug_loc     0x0000000000000000       0x79 .build/obj_my65_default/platforms/avr/hardware_id.o
 .debug_aranges
                0x0000000000000000       0x20 .build/obj_my65_default/platforms/avr/hardware_id.o
 .debug_ranges  0x0000000000000000       0x40 .build/obj_my65_default/platforms/avr/hardware_id.o
 .debug_line    0x0000000000000000      0x15c .build/obj_my65_default/platforms/avr/hardware_id.o
 .debug_str     0x0000000000000000      0x201 .build/obj_my65_default/platforms/avr/hardware_id.o
 .comment       0x0000000000000000       0x12 .build/obj_my65_default/platforms/avr/hardware_id.o
 .debug_frame   0x0000000000000000       0x2c .build/obj_my65_default/platforms/avr/hardware_id.o
 .text          0x0000000000000000        0x0 .build/obj_my65_default/platforms/avr/platform.o
 .data          0x0000000000000000        0x0 .build/obj_my65_default/platforms/avr/platform.o
 .bss           0x0000000000000000        0x0 .build/obj_my65_default/platforms/avr/platform.o
 .text          0x0000000000000000        0x0 .build/obj_my65_default/platforms/avr/suspend.o
 .data          0x0000000000000000        0x0 .build/obj_my65_default/platforms/avr/suspend.o
 .bss           0x0000000000000000        0x0 .build/obj_my65_default/platforms/avr/suspend.o
 .text          0x0000000000000000        0x0 .build/obj_my65_default/platforms/avr/timer.o
 .data          0x0000000000000000        0x0 .build/obj_my65_default/platforms/avr/timer.o
 .bss           0x0000000000000000        0x0 .build/obj_my65_default/platforms/avr/timer.o
 .text.timer_clear
                0x0000000000000000       0x18 .build/obj_my65_default/platforms/avr/timer.o
 .text.timer_elapsed32
                0x0000000000000000       0x38 .build/obj_my65_default/platforms/avr/timer.o
 .text          0x0000000000000000        0x0 .build/obj_my65_default/platforms/avr/bootloaders/dfu.o
 .data          0x0000000000000000        0x0 .build/obj_my65_default/platforms/avr/bootloaders/dfu.o
 .bss           0x0000000000000000        0x0 .build/obj_my65_default/platforms/avr/bootloaders/dfu.o
 .text          0x0000000000000000        0x0 .build/obj_my65_default/lufa.o
 .data          0x0000000000000000        0x0 .build/obj_my65_default/lufa.o
 .bss           0x0000000000000000        0x0 .build/obj_my65_default/lufa.o
 .text.raw_hid_receive
                0x0000000000000000        0x2 .build/obj_my65_default/lufa.o
 .text.send_digitizer
                0x0000000000000000        0x2 .build/obj_my65_default/lufa.o
 .text          0x0000000000000000        0x0 .build/obj_my65_default/usb_descriptor.o
 .data          0x0000000000000000        0x0 .build/obj_my65_default/usb_descriptor.o
 .bss           0x0000000000000000        0x0 .build/obj_my65_default/usb_descriptor.o
 .text          0x0000000000000000        0x0 .build/obj_my65_default/lib/lufa/LUFA/Drivers/USB/Class/Common/HIDParser.o
 .data          0x0000000000000000        0x0 .build/obj_my65_default/lib/lufa/LUFA/Drivers/USB/Class/Common/HIDParser.o
 .bss           0x0000000000000000        0x0 .build/obj_my65_default/lib/lufa/LUFA/Drivers/USB/Class/Common/HIDParser.o
 .text.USB_ProcessHIDReport
                0x0000000000000000      0x670 .build/obj_my65_default/lib/lufa/LUFA/Drivers/USB/Class/Common/HIDParser.o
 .text.USB_GetHIDReportItemInfo
                0x0000000000000000       0xc0 .build/obj_my65_default/lib/lufa/LUFA/Drivers/USB/Class/Common/HIDParser.o
 .text.USB_SetHIDReportItemInfo
                0x0000000000000000       0xb6 .build/obj_my65_default/lib/lufa/LUFA/Drivers/USB/Class/Common/HIDParser.o
 .text.USB_GetHIDReportSize
                0x0000000000000000       0x52 .build/obj_my65_default/lib/lufa/LUFA/Drivers/USB/Class/Common/HIDParser.o
 .debug_info    0x0000000000000000      0x80a .build/obj_my65_default/lib/lufa/LUFA/Drivers/USB/Class/Common/HIDParser.o
 .debug_abbrev  0x0000000000000000      0x253 .build/obj_my65_default/lib/lufa/LUFA/Drivers/USB/Class/Common/HIDParser.o
 .debug_loc     0x0000000000000000      0xbe5 .build/obj_my65_default/lib/lufa/LUFA/Drivers/USB/Class/Common/HIDParser.o
 .debug_aranges
                0x0000000000000000       0x38 .build/obj_my65_default/lib/lufa/LUFA/Drivers/USB/Class/Common/HIDParser.o
 .debug_ranges  0x0000000000000000      0x100 .build/obj_my65_default/lib/lufa/LUFA/Drivers/USB/Class/Common/HIDParser.o
 .debug_line    0x0000000000000000      0xe3d .build/obj_my65_default/lib/lufa/LUFA/Drivers/USB/Class/Common/HIDParser.o
 .debug_str     0x0000000000000000      0x6eb .build/obj_my65_default/lib/lufa/LUFA/Drivers/USB/Class/Common/HIDParser.o
 .comment       0x0000000000000000       0x12 .build/obj_my65_default/lib/lufa/LUFA/Drivers/USB/Class/Common/HIDParser.o
 .debug_frame   0x0000000000000000       0xdc .build/obj_my65_default/lib/lufa/LUFA/Drivers/USB/Class/Common/HIDParser.o
 .text          0x0000000000000000        0x0 .build/obj_my65_default/lib/lufa/LUFA/Drivers/USB/Core/AVR8/Device_AVR8.o
 .data          0x0000000000000000        0x0 .build/obj_my65_default/lib/lufa/LUFA/Drivers/USB/Core/AVR8/Device_AVR8.o
 .bss           0x0000000000000000        0x0 .build/obj_my65_default/lib/lufa/LUFA/Drivers/USB/Core/AVR8/Device_AVR8.o
 .text          0x0000000000000000        0x0 .build/obj_my65_default/lib/lufa/LUFA/Drivers/USB/Core/AVR8/EndpointStream_AVR8.o
 .data          0x0000000000000000        0x0 .build/obj_my65_default/lib/lufa/LUFA/Drivers/USB/Core/AVR8/EndpointStream_AVR8.o
 .bss           0x0000000000000000        0x0 .build/obj_my65_default/lib/lufa/LUFA/Drivers/USB/Core/AVR8/EndpointStream_AVR8.o
 .text.Endpoint_Discard_Stream
                0x0000000000000000       0x78 .build/obj_my65_default/lib/lufa/LUFA/Drivers/USB/Core/AVR8/EndpointStream_AVR8.o
 .text.Endpoint_Null_Stream
                0x0000000000000000       0x78 .build/obj_my65_default/lib/lufa/LUFA/Drivers/USB/Core/AVR8/EndpointStream_AVR8.o
 .text.Endpoint_Write_Stream_BE
                0x0000000000000000       0xa8 .build/obj_my65_default/lib/lufa/LUFA/Drivers/USB/Core/AVR8/EndpointStream_AVR8.o
 .text.Endpoint_Read_Stream_BE
                0x0000000000000000       0xa8 .build/obj_my65_default/lib/lufa/LUFA/Drivers/USB/Core/AVR8/EndpointStream_AVR8.o
 .text.Endpoint_Write_PStream_LE
                0x0000000000000000       0xa0 .build/obj_my65_default/lib/lufa/LUFA/Drivers/USB/Core/AVR8/EndpointStream_AVR8.o
 .text.Endpoint_Write_PStream_BE
                0x0000000000000000       0xaa .build/obj_my65_default/lib/lufa/LUFA/Drivers/USB/Core/AVR8/EndpointStream_AVR8.o
 .text.Endpoint_Write_EStream_LE
                0x0000000000000000       0xa2 .build/obj_my65_default/lib/lufa/LUFA/Drivers/USB/Core/AVR8/EndpointStream_AVR8.o
 .text.Endpoint_Write_EStream_BE
                0x0000000000000000       0xac .build/obj_my65_default/lib/lufa/LUFA/Drivers/USB/Core/AVR8/EndpointStream_AVR8.o
 .text.Endpoint_Read_EStream_LE
                0x0000000000000000       0xa2 .build/obj_my65_default/lib/lufa/LUFA/Drivers/USB/Core/AVR8/EndpointStream_AVR8.o
 .text.Endpoint_Read_EStream_BE
                0x0000000000000000       0xac .build/obj_my65_default/lib/lufa/LUFA/Drivers/USB/Core/AVR8/EndpointStream_AVR8.o
 .text.Endpoint_Write_Control_Stream_BE
                0x0000000000000000       0xc6 .build/obj_my65_default/lib/lufa/LUFA/Drivers/USB/Core/AVR8/EndpointStream_AVR8.o
 .text.Endpoint_Read_Control_Stream_LE
                0x0000000000000000       0x74 .build/obj_my65_default/lib/lufa/LUFA/Drivers/USB/Core/AVR8/EndpointStream_AVR8.o
 .text.Endpoint_Read_Control_Stream_BE
                0x0000000000000000       0x7e .build/obj_my65_default/lib/lufa/LUFA/Drivers/USB/Core/AVR8/EndpointStream_AVR8.o
 .text.Endpoint_Write_Control_PStream_BE
                0x0000000000000000       0xc2 .build/obj_my65_default/lib/lufa/LUFA/Drivers/USB/Core/AVR8/EndpointStream_AVR8.o
 .text.Endpoint_Write_Control_EStream_LE
                0x0000000000000000       0xd4 .build/obj_my65_default/lib/lufa/LUFA/Drivers/USB/Core/AVR8/EndpointStream_AVR8.o
 .text.Endpoint_Write_Control_EStream_BE
                0x0000000000000000       0xde .build/obj_my65_default/lib/lufa/LUFA/Drivers/USB/Core/AVR8/EndpointStream_AVR8.o
 .text.Endpoint_Read_Control_EStream_LE
                0x0000000000000000       0x86 .build/obj_my65_default/lib/lufa/LUFA/Drivers/USB/Core/AVR8/EndpointStream_AVR8.o
 .text.Endpoint_Read_Control_EStream_BE
                0x0000000000000000       0x8e .build/obj_my65_default/lib/lufa/LUFA/Drivers/USB/Core/AVR8/EndpointStream_AVR8.o
 .text          0x0000000000000000        0x0 .build/obj_my65_default/lib/lufa/LUFA/Drivers/USB/Core/AVR8/Endpoint_AVR8.o
 .data          0x0000000000000000        0x0 .build/obj_my65_default/lib/lufa/LUFA/Drivers/USB/Core/AVR8/Endpoint_AVR8.o
 .bss           0x0000000000000000        0x0 .build/obj_my65_default/lib/lufa/LUFA/Drivers/USB/Core/AVR8/Endpoint_AVR8.o
 .text.Endpoint_ConfigureEndpointTable
                0x0000000000000000       0x7a .build/obj_my65_default/lib/lufa/LUFA/Drivers/USB/Core/AVR8/Endpoint_AVR8.o
 .text.Endpoint_ClearEndpoints
                0x0000000000000000       0x28 .build/obj_my65_default/lib/lufa/LUFA/Drivers/USB/Core/AVR8/Endpoint_AVR8.o
 .text          0x0000000000000000        0x0 .build/obj_my65_default/lib/lufa/LUFA/Drivers/USB/Core/AVR8/Host_AVR8.o
 .data          0x0000000000000000        0x0 .build/obj_my65_default/lib/lufa/LUFA/Drivers/USB/Core/AVR8/Host_AVR8.o
 .bss           0x0000000000000000        0x0 .build/obj_my65_default/lib/lufa/LUFA/Drivers/USB/Core/AVR8/Host_AVR8.o
 .debug_info    0x0000000000000000       0x5d .build/obj_my65_default/lib/lufa/LUFA/Drivers/USB/Core/AVR8/Host_AVR8.o
 .debug_abbrev  0x0000000000000000       0x26 .build/obj_my65_default/lib/lufa/LUFA/Drivers/USB/Core/AVR8/Host_AVR8.o
 .debug_aranges
                0x0000000000000000       0x18 .build/obj_my65_default/lib/lufa/LUFA/Drivers/USB/Core/AVR8/Host_AVR8.o
 .debug_line    0x0000000000000000       0x1d .build/obj_my65_default/lib/lufa/LUFA/Drivers/USB/Core/AVR8/Host_AVR8.o
 .debug_str     0x0000000000000000      0x1cf .build/obj_my65_default/lib/lufa/LUFA/Drivers/USB/Core/AVR8/Host_AVR8.o
 .comment       0x0000000000000000       0x12 .build/obj_my65_default/lib/lufa/LUFA/Drivers/USB/Core/AVR8/Host_AVR8.o
 .text          0x0000000000000000        0x0 .build/obj_my65_default/lib/lufa/LUFA/Drivers/USB/Core/AVR8/PipeStream_AVR8.o
 .data          0x0000000000000000        0x0 .build/obj_my65_default/lib/lufa/LUFA/Drivers/USB/Core/AVR8/PipeStream_AVR8.o
 .bss           0x0000000000000000        0x0 .build/obj_my65_default/lib/lufa/LUFA/Drivers/USB/Core/AVR8/PipeStream_AVR8.o
 .debug_info    0x0000000000000000       0x5d .build/obj_my65_default/lib/lufa/LUFA/Drivers/USB/Core/AVR8/PipeStream_AVR8.o
 .debug_abbrev  0x0000000000000000       0x26 .build/obj_my65_default/lib/lufa/LUFA/Drivers/USB/Core/AVR8/PipeStream_AVR8.o
 .debug_aranges
                0x0000000000000000       0x18 .build/obj_my65_default/lib/lufa/LUFA/Drivers/USB/Core/AVR8/PipeStream_AVR8.o
 .debug_line    0x0000000000000000       0x1d .build/obj_my65_default/lib/lufa/LUFA/Drivers/USB/Core/AVR8/PipeStream_AVR8.o
 .debug_str     0x0000000000000000      0x1d5 .build/obj_my65_default/lib/lufa/LUFA/Drivers/USB/Core/AVR8/PipeStream_AVR8.o
 .comment       0x0000000000000000       0x12 .build/obj_my65_default/lib/lufa/LUFA/Drivers/USB/Core/AVR8/PipeStream_AVR8.o
 .text          0x0000000000000000        0x0 .build/obj_my65_default/lib/lufa/LUFA/Drivers/USB/Core/AVR8/Pipe_AVR8.o
 .data          0x0000000000000000        0x0 .build/obj_my65_default/lib/lufa/LUFA/Drivers/USB/Core/AVR8/Pipe_AVR8.o
 .bss           0x0000000000000000        0x0 .build/obj_my65_default/lib/lufa/LUFA/Drivers/USB/Core/AVR8/Pipe_AVR8.o
 .debug_info    0x0000000000000000       0x5d .build/obj_my65_default/lib/lufa/LUFA/Drivers/USB/Core/AVR8/Pipe_AVR8.o
 .debug_abbrev  0x0000000000000000       0x26 .build/obj_my65_default/lib/lufa/LUFA/Drivers/USB/Core/AVR8/Pipe_AVR8.o
 .debug_aranges
                0x0000000000000000       0x18 .build/obj_my65_default/lib/lufa/LUFA/Drivers/USB/Core/AVR8/Pipe_AVR8.o
 .debug_line    0x0000000000000000       0x1d .build/obj_my65_default/lib/lufa/LUFA/Drivers/USB/Core/AVR8/Pipe_AVR8.o
 .debug_str     0x0000000000000000      0x1cf .build/obj_my65_default/lib/lufa/LUFA/Drivers/USB/Core/AVR8/Pipe_AVR8.o
 .comment       0x0000000000000000       0x12 .build/obj_my65_default/lib/lufa/LUFA/Drivers/USB/Core/AVR8/Pipe_AVR8.o
 .text          0x0000000000000000        0x0 .build/obj_my65_default/lib/lufa/LUFA/Drivers/USB/Core/AVR8/USBController_AVR8.o
 .data          0x0000000000000000        0x0 .build/obj_my65_default/lib/lufa/LUFA/Drivers/USB/Core/AVR8/USBController_AVR8.o
 .bss           0x0000000000000000        0x0 .build/obj_my65_default/lib/lufa/LUFA/Drivers/USB/Core/AVR8/USBController_AVR8.o
 .text          0x0000000000000000        0x0 .build/obj_my65_default/lib/lufa/LUFA/Drivers/USB/Core/AVR8/USBInterrupt_AVR8.o
 .data          0x0000000000000000        0x0 .build/obj_my65_default/lib/lufa/LUFA/Drivers/USB/Core/AVR8/USBInterrupt_AVR8.o
 .bss           0x0000000000000000        0x0 .build/obj_my65_default/lib/lufa/LUFA/Drivers/USB/Core/AVR8/USBInterrupt_AVR8.o
 .text          0x0000000000000000        0x0 .build/obj_my65_default/lib/lufa/LUFA/Drivers/USB/Core/ConfigDescriptors.o
 .data          0x0000000000000000        0x0 .build/obj_my65_default/lib/lufa/LUFA/Drivers/USB/Core/ConfigDescriptors.o
 .bss           0x0000000000000000        0x0 .build/obj_my65_default/lib/lufa/LUFA/Drivers/USB/Core/ConfigDescriptors.o
 .text.USB_GetNextDescriptor
                0x0000000000000000       0x3c .build/obj_my65_default/lib/lufa/LUFA/Drivers/USB/Core/ConfigDescriptors.o
 .text.USB_GetNextDescriptorOfType
                0x0000000000000000       0x36 .build/obj_my65_default/lib/lufa/LUFA/Drivers/USB/Core/ConfigDescriptors.o
 .text.USB_GetNextDescriptorOfTypeBefore
                0x0000000000000000       0x42 .build/obj_my65_default/lib/lufa/LUFA/Drivers/USB/Core/ConfigDescriptors.o
 .text.USB_GetNextDescriptorOfTypeAfter
                0x0000000000000000       0x32 .build/obj_my65_default/lib/lufa/LUFA/Drivers/USB/Core/ConfigDescriptors.o
 .text.USB_GetNextDescriptorComp
                0x0000000000000000       0x52 .build/obj_my65_default/lib/lufa/LUFA/Drivers/USB/Core/ConfigDescriptors.o
 .debug_info    0x0000000000000000      0x512 .build/obj_my65_default/lib/lufa/LUFA/Drivers/USB/Core/ConfigDescriptors.o
 .debug_abbrev  0x0000000000000000      0x1d7 .build/obj_my65_default/lib/lufa/LUFA/Drivers/USB/Core/ConfigDescriptors.o
 .debug_loc     0x0000000000000000      0x47a .build/obj_my65_default/lib/lufa/LUFA/Drivers/USB/Core/ConfigDescriptors.o
 .debug_aranges
                0x0000000000000000       0x40 .build/obj_my65_default/lib/lufa/LUFA/Drivers/USB/Core/ConfigDescriptors.o
 .debug_ranges  0x0000000000000000       0x30 .build/obj_my65_default/lib/lufa/LUFA/Drivers/USB/Core/ConfigDescriptors.o
 .debug_line    0x0000000000000000      0x396 .build/obj_my65_default/lib/lufa/LUFA/Drivers/USB/Core/ConfigDescriptors.o
 .debug_str     0x0000000000000000      0x507 .build/obj_my65_default/lib/lufa/LUFA/Drivers/USB/Core/ConfigDescriptors.o
 .comment       0x0000000000000000       0x12 .build/obj_my65_default/lib/lufa/LUFA/Drivers/USB/Core/ConfigDescriptors.o
 .debug_frame   0x0000000000000000       0xe0 .build/obj_my65_default/lib/lufa/LUFA/Drivers/USB/Core/ConfigDescriptors.o
 .text          0x0000000000000000        0x0 .build/obj_my65_default/lib/lufa/LUFA/Drivers/USB/Core/DeviceStandardReq.o
 .data          0x0000000000000000        0x0 .build/obj_my65_default/lib/lufa/LUFA/Drivers/USB/Core/DeviceStandardReq.o
 .bss           0x0000000000000000        0x0 .build/obj_my65_default/lib/lufa/LUFA/Drivers/USB/Core/DeviceStandardReq.o
 .text          0x0000000000000000        0x0 .build/obj_my65_default/lib/lufa/LUFA/Drivers/USB/Core/Events.o
 .data          0x0000000000000000        0x0 .build/obj_my65_default/lib/lufa/LUFA/Drivers/USB/Core/Events.o
 .bss           0x0000000000000000        0x0 .build/obj_my65_default/lib/lufa/LUFA/Drivers/USB/Core/Events.o
 .text.USB_Event_Stub
                0x0000000000000000        0x2 .build/obj_my65_default/lib/lufa/LUFA/Drivers/USB/Core/Events.o
 .text.USB_Event_Stub_2
                0x0000000000000000        0x2 .build/obj_my65_default/lib/lufa/LUFA/Drivers/USB/Core/Events.o
 .text.USB_Event_Stub_3
                0x0000000000000000        0x2 .build/obj_my65_default/lib/lufa/LUFA/Drivers/USB/Core/Events.o
 .debug_info    0x0000000000000000       0xf0 .build/obj_my65_default/lib/lufa/LUFA/Drivers/USB/Core/Events.o
 .debug_abbrev  0x0000000000000000       0x89 .build/obj_my65_default/lib/lufa/LUFA/Drivers/USB/Core/Events.o
 .debug_aranges
                0x0000000000000000       0x30 .build/obj_my65_default/lib/lufa/LUFA/Drivers/USB/Core/Events.o
 .debug_ranges  0x0000000000000000       0x20 .build/obj_my65_default/lib/lufa/LUFA/Drivers/USB/Core/Events.o
 .debug_line    0x0000000000000000       0xe4 .build/obj_my65_default/lib/lufa/LUFA/Drivers/USB/Core/Events.o
 .debug_str     0x0000000000000000      0x200 .build/obj_my65_default/lib/lufa/LUFA/Drivers/USB/Core/Events.o
 .comment       0x0000000000000000       0x12 .build/obj_my65_default/lib/lufa/LUFA/Drivers/USB/Core/Events.o
 .debug_frame   0x0000000000000000       0x44 .build/obj_my65_default/lib/lufa/LUFA/Drivers/USB/Core/Events.o
 .text          0x0000000000000000        0x0 .build/obj_my65_default/lib/lufa/LUFA/Drivers/USB/Core/HostStandardReq.o
 .data          0x0000000000000000        0x0 .build/obj_my65_default/lib/lufa/LUFA/Drivers/USB/Core/HostStandardReq.o
 .bss           0x0000000000000000        0x0 .build/obj_my65_default/lib/lufa/LUFA/Drivers/USB/Core/HostStandardReq.o
 .debug_info    0x0000000000000000       0x5d .build/obj_my65_default/lib/lufa/LUFA/Drivers/USB/Core/HostStandardReq.o
 .debug_abbrev  0x0000000000000000       0x26 .build/obj_my65_default/lib/lufa/LUFA/Drivers/USB/Core/HostStandardReq.o
 .debug_aranges
                0x0000000000000000       0x18 .build/obj_my65_default/lib/lufa/LUFA/Drivers/USB/Core/HostStandardReq.o
 .debug_line    0x0000000000000000       0x1d .build/obj_my65_default/lib/lufa/LUFA/Drivers/USB/Core/HostStandardReq.o
 .debug_str     0x0000000000000000      0x1d0 .build/obj_my65_default/lib/lufa/LUFA/Drivers/USB/Core/HostStandardReq.o
 .comment       0x0000000000000000       0x12 .build/obj_my65_default/lib/lufa/LUFA/Drivers/USB/Core/HostStandardReq.o
 .text          0x0000000000000000        0x0 .build/obj_my65_default/lib/lufa/LUFA/Drivers/USB/Core/USBTask.o
 .data          0x0000000000000000        0x0 .build/obj_my65_default/lib/lufa/LUFA/Drivers/USB/Core/USBTask.o
 .bss           0x0000000000000000        0x0 .build/obj_my65_default/lib/lufa/LUFA/Drivers/USB/Core/USBTask.o
 .text          0x0000000000000000        0x0 .build/obj_my65_default/protocol/lufa/usb_util.o
 .data          0x0000000000000000        0x0 .build/obj_my65_default/protocol/lufa/usb_util.o
 .bss           0x0000000000000000        0x0 .build/obj_my65_default/protocol/lufa/usb_util.o
 .text.usb_disconnect
                0x0000000000000000        0xa .build/obj_my65_default/protocol/lufa/usb_util.o
 .text.usb_connected_state
                0x0000000000000000        0xc .build/obj_my65_default/protocol/lufa/usb_util.o
 .text.usb_vbus_state
                0x0000000000000000       0x1a .build/obj_my65_default/protocol/lufa/usb_util.o
 .debug_info    0x0000000000000000      0x41d .build/obj_my65_default/protocol/lufa/usb_util.o
 .debug_abbrev  0x0000000000000000      0x260 .build/obj_my65_default/protocol/lufa/usb_util.o
 .debug_loc     0x0000000000000000       0x4b .build/obj_my65_default/protocol/lufa/usb_util.o
 .debug_aranges
                0x0000000000000000       0x30 .build/obj_my65_default/protocol/lufa/usb_util.o
 .debug_ranges  0x0000000000000000       0x38 .build/obj_my65_default/protocol/lufa/usb_util.o
 .debug_line    0x0000000000000000      0x316 .build/obj_my65_default/protocol/lufa/usb_util.o
 .debug_str     0x0000000000000000      0x456 .build/obj_my65_default/protocol/lufa/usb_util.o
 .comment       0x0000000000000000       0x12 .build/obj_my65_default/protocol/lufa/usb_util.o
 .debug_frame   0x0000000000000000       0x44 .build/obj_my65_default/protocol/lufa/usb_util.o
 .text          0x0000000000000000        0x0 c:/qmk_msys/mingw64/bin/../lib/gcc/avr/8.5.0/../../../../avr/lib/avr5\libm.a(fixunssfsi.o)
 .data          0x0000000000000000        0x0 c:/qmk_msys/mingw64/bin/../lib/gcc/avr/8.5.0/../../../../avr/lib/avr5\libm.a(fixunssfsi.o)
 .bss           0x0000000000000000        0x0 c:/qmk_msys/mingw64/bin/../lib/gcc/avr/8.5.0/../../../../avr/lib/avr5\libm.a(fixunssfsi.o)
 .text.avr-libc.fplib
                0x0000000000000000       0x5e c:/qmk_msys/mingw64/bin/../lib/gcc/avr/8.5.0/../../../../avr/lib/avr5\libm.a(fixunssfsi.o)
 .text          0x0000000000000000        0x0 c:/qmk_msys/mingw64/bin/../lib/gcc/avr/8.5.0/../../../../avr/lib/avr5\libm.a(fp_split3.o)
 .data          0x0000000000000000        0x0 c:/qmk_msys/mingw64/bin/../lib/gcc/avr/8.5.0/../../../../avr/lib/avr5\libm.a(fp_split3.o)
 .bss           0x0000000000000000        0x0 c:/qmk_msys/mingw64/bin/../lib/gcc/avr/8.5.0/../../../../avr/lib/avr5\libm.a(fp_split3.o)
 .text.avr-libc.fplib
                0x0000000000000000       0x44 c:/qmk_msys/mingw64/bin/../lib/gcc/avr/8.5.0/../../../../avr/lib/avr5\libm.a(fp_split3.o)
 .text          0x0000000000000000        0x0 c:/qmk_msys/mingw64/bin/../lib/gcc/avr/8.5.0/../../../../avr/lib/avr5\libm.a(fp_zero.o)
 .data          0x0000000000000000        0x0 c:/qmk_msys/mingw64/bin/../lib/gcc/avr/8.5.0/../../../../avr/lib/avr5\libm.a(fp_zero.o)
 .bss           0x0000000000000000        0x0 c:/qmk_msys/mingw64/bin/../lib/gcc/avr/8.5.0/../../../../avr/lib/avr5\libm.a(fp_zero.o)
 .text.avr-libc.fplib
                0x0000000000000000        0xe c:/qmk_msys/mingw64/bin/../lib/gcc/avr/8.5.0/../../../../avr/lib/avr5\libm.a(fp_zero.o)
 .text          0x0000000000000000        0x0 c:/qmk_msys/mingw64/bin/../lib/gcc/avr/8.5.0/../../../../avr/lib/avr5\libm.a(mulsf3.o)
 .data          0x0000000000000000        0x0 c:/qmk_msys/mingw64/bin/../lib/gcc/avr/8.5.0/../../../../avr/lib/avr5\libm.a(mulsf3.o)
 .bss           0x0000000000000000        0x0 c:/qmk_msys/mingw64/bin/../lib/gcc/avr/8.5.0/../../../../avr/lib/avr5\libm.a(mulsf3.o)
 .text.avr-libc.fplib
                0x0000000000000000        0x8 c:/qmk_msys/mingw64/bin/../lib/gcc/avr/8.5.0/../../../../avr/lib/avr5\libm.a(mulsf3.o)
 .text          0x0000000000000000        0x0 c:/qmk_msys/mingw64/bin/../lib/gcc/avr/8.5.0/../../../../avr/lib/avr5\libm.a(mulsf3x.o)
 .data          0x0000000000000000        0x0 c:/qmk_msys/mingw64/bin/../lib/gcc/avr/8.5.0/../../../../avr/lib/avr5\libm.a(mulsf3x.o)
 .bss           0x0000000000000000        0x0 c:/qmk_msys/mingw64/bin/../lib/gcc/avr/8.5.0/../../../../avr/lib/avr5\libm.a(mulsf3x.o)
 .text.avr-libc.fplib
                0x0000000000000000       0xd2 c:/qmk_msys/mingw64/bin/../lib/gcc/avr/8.5.0/../../../../avr/lib/avr5\libm.a(mulsf3x.o)
 .text          0x0000000000000000        0x0 c:/qmk_msys/mingw64/bin/../lib/gcc/avr/8.5.0/../../../../avr/lib/avr5\libm.a(fp_inf.o)
 .data          0x0000000000000000        0x0 c:/qmk_msys/mingw64/bin/../lib/gcc/avr/8.5.0/../../../../avr/lib/avr5\libm.a(fp_inf.o)
 .bss           0x0000000000000000        0x0 c:/qmk_msys/mingw64/bin/../lib/gcc/avr/8.5.0/../../../../avr/lib/avr5\libm.a(fp_inf.o)
 .text.avr-libc.fplib
                0x0000000000000000        0xc c:/qmk_msys/mingw64/bin/../lib/gcc/avr/8.5.0/../../../../avr/lib/avr5\libm.a(fp_inf.o)
 .text          0x0000000000000000        0x0 c:/qmk_msys/mingw64/bin/../lib/gcc/avr/8.5.0/../../../../avr/lib/avr5\libm.a(fp_nan.o)
 .data          0x0000000000000000        0x0 c:/qmk_msys/mingw64/bin/../lib/gcc/avr/8.5.0/../../../../avr/lib/avr5\libm.a(fp_nan.o)
 .bss           0x0000000000000000        0x0 c:/qmk_msys/mingw64/bin/../lib/gcc/avr/8.5.0/../../../../avr/lib/avr5\libm.a(fp_nan.o)
 .text.avr-libc.fplib
                0x0000000000000000        0x6 c:/qmk_msys/mingw64/bin/../lib/gcc/avr/8.5.0/../../../../avr/lib/avr5\libm.a(fp_nan.o)
 .text          0x0000000000000000        0x0 c:/qmk_msys/mingw64/bin/../lib/gcc/avr/8.5.0/../../../../avr/lib/avr5\libm.a(fp_pscA.o)
 .data          0x0000000000000000        0x0 c:/qmk_msys/mingw64/bin/../lib/gcc/avr/8.5.0/../../../../avr/lib/avr5\libm.a(fp_pscA.o)
 .bss           0x0000000000000000        0x0 c:/qmk_msys/mingw64/bin/../lib/gcc/avr/8.5.0/../../../../avr/lib/avr5\libm.a(fp_pscA.o)
 .text.avr-libc.fplib
                0x0000000000000000        0xe c:/qmk_msys/mingw64/bin/../lib/gcc/avr/8.5.0/../../../../avr/lib/avr5\libm.a(fp_pscA.o)
 .text          0x0000000000000000        0x0 c:/qmk_msys/mingw64/bin/../lib/gcc/avr/8.5.0/../../../../avr/lib/avr5\libm.a(fp_pscB.o)
 .data          0x0000000000000000        0x0 c:/qmk_msys/mingw64/bin/../lib/gcc/avr/8.5.0/../../../../avr/lib/avr5\libm.a(fp_pscB.o)
 .bss           0x0000000000000000        0x0 c:/qmk_msys/mingw64/bin/../lib/gcc/avr/8.5.0/../../../../avr/lib/avr5\libm.a(fp_pscB.o)
 .text.avr-libc.fplib
                0x0000000000000000        0xe c:/qmk_msys/mingw64/bin/../lib/gcc/avr/8.5.0/../../../../avr/lib/avr5\libm.a(fp_pscB.o)
 .text          0x0000000000000000        0x0 c:/qmk_msys/mingw64/bin/../lib/gcc/avr/8.5.0/../../../../avr/lib/avr5\libm.a(fp_round.o)
 .data          0x0000000000000000        0x0 c:/qmk_msys/mingw64/bin/../lib/gcc/avr/8.5.0/../../../../avr/lib/avr5\libm.a(fp_round.o)
 .bss           0x0000000000000000        0x0 c:/qmk_msys/mingw64/bin/../lib/gcc/avr/8.5.0/../../../../avr/lib/avr5\libm.a(fp_round.o)
 .text.avr-libc.fplib
                0x0000000000000000       0x22 c:/qmk_msys/mingw64/bin/../lib/gcc/avr/8.5.0/../../../../avr/lib/avr5\libm.a(fp_round.o)
 .text          0x0000000000000000        0x0 c:/qmk_msys/mingw64/bin/../lib/gcc/avr/8.5.0/avr5\libgcc.a(_udivmodqi4.o)
 .data          0x0000000000000000        0x0 c:/qmk_msys/mingw64/bin/../lib/gcc/avr/8.5.0/avr5\libgcc.a(_udivmodqi4.o)
 .bss           0x0000000000000000        0x0 c:/qmk_msys/mingw64/bin/../lib/gcc/avr/8.5.0/avr5\libgcc.a(_udivmodqi4.o)
 .text.libgcc.mul
                0x0000000000000000        0x0 c:/qmk_msys/mingw64/bin/../lib/gcc/avr/8.5.0/avr5\libgcc.a(_udivmodqi4.o)
 .text.libgcc   0x0000000000000000        0x0 c:/qmk_msys/mingw64/bin/../lib/gcc/avr/8.5.0/avr5\libgcc.a(_udivmodqi4.o)
 .text.libgcc.prologue
                0x0000000000000000        0x0 c:/qmk_msys/mingw64/bin/../lib/gcc/avr/8.5.0/avr5\libgcc.a(_udivmodqi4.o)
 .text.libgcc.builtins
                0x0000000000000000        0x0 c:/qmk_msys/mingw64/bin/../lib/gcc/avr/8.5.0/avr5\libgcc.a(_udivmodqi4.o)
 .text.libgcc.fmul
                0x0000000000000000        0x0 c:/qmk_msys/mingw64/bin/../lib/gcc/avr/8.5.0/avr5\libgcc.a(_udivmodqi4.o)
 .text.libgcc.fixed
                0x0000000000000000        0x0 c:/qmk_msys/mingw64/bin/../lib/gcc/avr/8.5.0/avr5\libgcc.a(_udivmodqi4.o)
 .text          0x0000000000000000        0x0 c:/qmk_msys/mingw64/bin/../lib/gcc/avr/8.5.0/avr5\libgcc.a(_divmodhi4.o)
 .data          0x0000000000000000        0x0 c:/qmk_msys/mingw64/bin/../lib/gcc/avr/8.5.0/avr5\libgcc.a(_divmodhi4.o)
 .bss           0x0000000000000000        0x0 c:/qmk_msys/mingw64/bin/../lib/gcc/avr/8.5.0/avr5\libgcc.a(_divmodhi4.o)
 .text.libgcc.mul
                0x0000000000000000        0x0 c:/qmk_msys/mingw64/bin/../lib/gcc/avr/8.5.0/avr5\libgcc.a(_divmodhi4.o)
 .text.libgcc   0x0000000000000000        0x0 c:/qmk_msys/mingw64/bin/../lib/gcc/avr/8.5.0/avr5\libgcc.a(_divmodhi4.o)
 .text.libgcc.prologue
                0x0000000000000000        0x0 c:/qmk_msys/mingw64/bin/../lib/gcc/avr/8.5.0/avr5\libgcc.a(_divmodhi4.o)
 .text.libgcc.builtins
                0x0000000000000000        0x0 c:/qmk_msys/mingw64/bin/../lib/gcc/avr/8.5.0/avr5\libgcc.a(_divmodhi4.o)
 .text.libgcc.fmul
                0x0000000000000000        0x0 c:/qmk_msys/mingw64/bin/../lib/gcc/avr/8.5.0/avr5\libgcc.a(_divmodhi4.o)
 .text.libgcc.fixed
                0x0000000000000000        0x0 c:/qmk_msys/mingw64/bin/../lib/gcc/avr/8.5.0/avr5\libgcc.a(_divmodhi4.o)
 .text          0x0000000000000000        0x0 c:/qmk_msys/mingw64/bin/../lib/gcc/avr/8.5.0/avr5\libgcc.a(_udivmodsi4.o)
 .data          0x0000000000000000        0x0 c:/qmk_msys/mingw64/bin/../lib/gcc/avr/8.5.0/avr5\libgcc.a(_udivmodsi4.o)
 .bss           0x0000000000000000        0x0 c:/qmk_msys/mingw64/bin/../lib/gcc/avr/8.5.0/avr5\libgcc.a(_udivmodsi4.o)
 .text.libgcc.mul
                0x0000000000000000        0x0 c:/qmk_msys/mingw64/bin/../lib/gcc/avr/8.5.0/avr5\libgcc.a(_udivmodsi4.o)
 .text.libgcc.div
                0x0000000000000000       0x44 c:/qmk_msys/mingw64/bin/../lib/gcc/avr/8.5.0/avr5\libgcc.a(_udivmodsi4.o)
 .text.libgcc   0x0000000000000000        0x0 c:/qmk_msys/mingw64/bin/../lib/gcc/avr/8.5.0/avr5\libgcc.a(_udivmodsi4.o)
 .text.libgcc.prologue
                0x0000000000000000        0x0 c:/qmk_msys/mingw64/bin/../lib/gcc/avr/8.5.0/avr5\libgcc.a(_udivmodsi4.o)
 .text.libgcc.builtins
                0x0000000000000000        0x0 c:/qmk_msys/mingw64/bin/../lib/gcc/avr/8.5.0/avr5\libgcc.a(_udivmodsi4.o)
 .text.libgcc.fmul
                0x0000000000000000        0x0 c:/qmk_msys/mingw64/bin/../lib/gcc/avr/8.5.0/avr5\libgcc.a(_udivmodsi4.o)
 .text.libgcc.fixed
                0x0000000000000000        0x0 c:/qmk_msys/mingw64/bin/../lib/gcc/avr/8.5.0/avr5\libgcc.a(_udivmodsi4.o)
 .text          0x0000000000000000        0x0 c:/qmk_msys/mingw64/bin/../lib/gcc/avr/8.5.0/avr5\libgcc.a(_exit.o)
 .data          0x0000000000000000        0x0 c:/qmk_msys/mingw64/bin/../lib/gcc/avr/8.5.0/avr5\libgcc.a(_exit.o)
 .bss           0x0000000000000000        0x0 c:/qmk_msys/mingw64/bin/../lib/gcc/avr/8.5.0/avr5\libgcc.a(_exit.o)
 .text.libgcc.mul
                0x0000000000000000        0x0 c:/qmk_msys/mingw64/bin/../lib/gcc/avr/8.5.0/avr5\libgcc.a(_exit.o)
 .text.libgcc.div
                0x0000000000000000        0x0 c:/qmk_msys/mingw64/bin/../lib/gcc/avr/8.5.0/avr5\libgcc.a(_exit.o)
 .text.libgcc   0x0000000000000000        0x0 c:/qmk_msys/mingw64/bin/../lib/gcc/avr/8.5.0/avr5\libgcc.a(_exit.o)
 .text.libgcc.prologue
                0x0000000000000000        0x0 c:/qmk_msys/mingw64/bin/../lib/gcc/avr/8.5.0/avr5\libgcc.a(_exit.o)
 .text.libgcc.builtins
                0x0000000000000000        0x0 c:/qmk_msys/mingw64/bin/../lib/gcc/avr/8.5.0/avr5\libgcc.a(_exit.o)
 .text.libgcc.fmul
                0x0000000000000000        0x0 c:/qmk_msys/mingw64/bin/../lib/gcc/avr/8.5.0/avr5\libgcc.a(_exit.o)
 .text.libgcc.fixed
                0x0000000000000000        0x0 c:/qmk_msys/mingw64/bin/../lib/gcc/avr/8.5.0/avr5\libgcc.a(_exit.o)
 .text          0x0000000000000000        0x0 c:/qmk_msys/mingw64/bin/../lib/gcc/avr/8.5.0/avr5\libgcc.a(_tablejump2.o)
 .data          0x0000000000000000        0x0 c:/qmk_msys/mingw64/bin/../lib/gcc/avr/8.5.0/avr5\libgcc.a(_tablejump2.o)
 .bss           0x0000000000000000        0x0 c:/qmk_msys/mingw64/bin/../lib/gcc/avr/8.5.0/avr5\libgcc.a(_tablejump2.o)
 .text.libgcc.mul
                0x0000000000000000        0x0 c:/qmk_msys/mingw64/bin/../lib/gcc/avr/8.5.0/avr5\libgcc.a(_tablejump2.o)
 .text.libgcc.div
                0x0000000000000000        0x0 c:/qmk_msys/mingw64/bin/../lib/gcc/avr/8.5.0/avr5\libgcc.a(_tablejump2.o)
 .text.libgcc.prologue
                0x0000000000000000        0x0 c:/qmk_msys/mingw64/bin/../lib/gcc/avr/8.5.0/avr5\libgcc.a(_tablejump2.o)
 .text.libgcc.builtins
                0x0000000000000000        0x0 c:/qmk_msys/mingw64/bin/../lib/gcc/avr/8.5.0/avr5\libgcc.a(_tablejump2.o)
 .text.libgcc.fmul
                0x0000000000000000        0x0 c:/qmk_msys/mingw64/bin/../lib/gcc/avr/8.5.0/avr5\libgcc.a(_tablejump2.o)
 .text.libgcc.fixed
                0x0000000000000000        0x0 c:/qmk_msys/mingw64/bin/../lib/gcc/avr/8.5.0/avr5\libgcc.a(_tablejump2.o)
 .text          0x0000000000000000        0x0 c:/qmk_msys/mingw64/bin/../lib/gcc/avr/8.5.0/avr5\libgcc.a(_copy_data.o)
 .data          0x0000000000000000        0x0 c:/qmk_msys/mingw64/bin/../lib/gcc/avr/8.5.0/avr5\libgcc.a(_copy_data.o)
 .bss           0x0000000000000000        0x0 c:/qmk_msys/mingw64/bin/../lib/gcc/avr/8.5.0/avr5\libgcc.a(_copy_data.o)
 .text.libgcc.mul
                0x0000000000000000        0x0 c:/qmk_msys/mingw64/bin/../lib/gcc/avr/8.5.0/avr5\libgcc.a(_copy_data.o)
 .text.libgcc.div
                0x0000000000000000        0x0 c:/qmk_msys/mingw64/bin/../lib/gcc/avr/8.5.0/avr5\libgcc.a(_copy_data.o)
 .text.libgcc   0x0000000000000000        0x0 c:/qmk_msys/mingw64/bin/../lib/gcc/avr/8.5.0/avr5\libgcc.a(_copy_data.o)
 .text.libgcc.prologue
                0x0000000000000000        0x0 c:/qmk_msys/mingw64/bin/../lib/gcc/avr/8.5.0/avr5\libgcc.a(_copy_data.o)
 .text.libgcc.builtins
                0x0000000000000000        0x0 c:/qmk_msys/mingw64/bin/../lib/gcc/avr/8.5.0/avr5\libgcc.a(_copy_data.o)
 .text.libgcc.fmul
                0x0000000000000000        0x0 c:/qmk_msys/mingw64/bin/../lib/gcc/avr/8.5.0/avr5\libgcc.a(_copy_data.o)
 .text.libgcc.fixed
                0x0000000000000000        0x0 c:/qmk_msys/mingw64/bin/../lib/gcc/avr/8.5.0/avr5\libgcc.a(_copy_data.o)
 .text          0x0000000000000000        0x0 c:/qmk_msys/mingw64/bin/../lib/gcc/avr/8.5.0/avr5\libgcc.a(_clear_bss.o)
 .data          0x0000000000000000        0x0 c:/qmk_msys/mingw64/bin/../lib/gcc/avr/8.5.0/avr5\libgcc.a(_clear_bss.o)
 .bss           0x0000000000000000        0x0 c:/qmk_msys/mingw64/bin/../lib/gcc/avr/8.5.0/avr5\libgcc.a(_clear_bss.o)
 .text.libgcc.mul
                0x0000000000000000        0x0 c:/qmk_msys/mingw64/bin/../lib/gcc/avr/8.5.0/avr5\libgcc.a(_clear_bss.o)
 .text.libgcc.div
                0x0000000000000000        0x0 c:/qmk_msys/mingw64/bin/../lib/gcc/avr/8.5.0/avr5\libgcc.a(_clear_bss.o)
 .text.libgcc   0x0000000000000000        0x0 c:/qmk_msys/mingw64/bin/../lib/gcc/avr/8.5.0/avr5\libgcc.a(_clear_bss.o)
 .text.libgcc.prologue
                0x0000000000000000        0x0 c:/qmk_msys/mingw64/bin/../lib/gcc/avr/8.5.0/avr5\libgcc.a(_clear_bss.o)
 .text.libgcc.builtins
                0x0000000000000000        0x0 c:/qmk_msys/mingw64/bin/../lib/gcc/avr/8.5.0/avr5\libgcc.a(_clear_bss.o)
 .text.libgcc.fmul
                0x0000000000000000        0x0 c:/qmk_msys/mingw64/bin/../lib/gcc/avr/8.5.0/avr5\libgcc.a(_clear_bss.o)
 .text.libgcc.fixed
                0x0000000000000000        0x0 c:/qmk_msys/mingw64/bin/../lib/gcc/avr/8.5.0/avr5\libgcc.a(_clear_bss.o)
 .text          0x0000000000000000        0x0 c:/qmk_msys/mingw64/bin/../lib/gcc/avr/8.5.0/avr5\libgcc.a(_bswapsi2.o)
 .data          0x0000000000000000        0x0 c:/qmk_msys/mingw64/bin/../lib/gcc/avr/8.5.0/avr5\libgcc.a(_bswapsi2.o)
 .bss           0x0000000000000000        0x0 c:/qmk_msys/mingw64/bin/../lib/gcc/avr/8.5.0/avr5\libgcc.a(_bswapsi2.o)
 .text.libgcc.mul
                0x0000000000000000        0x0 c:/qmk_msys/mingw64/bin/../lib/gcc/avr/8.5.0/avr5\libgcc.a(_bswapsi2.o)
 .text.libgcc.div
                0x0000000000000000        0x0 c:/qmk_msys/mingw64/bin/../lib/gcc/avr/8.5.0/avr5\libgcc.a(_bswapsi2.o)
 .text.libgcc   0x0000000000000000        0x0 c:/qmk_msys/mingw64/bin/../lib/gcc/avr/8.5.0/avr5\libgcc.a(_bswapsi2.o)
 .text.libgcc.prologue
                0x0000000000000000        0x0 c:/qmk_msys/mingw64/bin/../lib/gcc/avr/8.5.0/avr5\libgcc.a(_bswapsi2.o)
 .text.libgcc.fmul
                0x0000000000000000        0x0 c:/qmk_msys/mingw64/bin/../lib/gcc/avr/8.5.0/avr5\libgcc.a(_bswapsi2.o)
 .text.libgcc.fixed
                0x0000000000000000        0x0 c:/qmk_msys/mingw64/bin/../lib/gcc/avr/8.5.0/avr5\libgcc.a(_bswapsi2.o)
 .text          0x0000000000000000        0x0 c:/qmk_msys/mingw64/bin/../lib/gcc/avr/8.5.0/avr5\libgcc.a(_prologue.o)
 .data          0x0000000000000000        0x0 c:/qmk_msys/mingw64/bin/../lib/gcc/avr/8.5.0/avr5\libgcc.a(_prologue.o)
 .bss           0x0000000000000000        0x0 c:/qmk_msys/mingw64/bin/../lib/gcc/avr/8.5.0/avr5\libgcc.a(_prologue.o)
 .text.libgcc.mul
                0x0000000000000000        0x0 c:/qmk_msys/mingw64/bin/../lib/gcc/avr/8.5.0/avr5\libgcc.a(_prologue.o)
 .text.libgcc.div
                0x0000000000000000        0x0 c:/qmk_msys/mingw64/bin/../lib/gcc/avr/8.5.0/avr5\libgcc.a(_prologue.o)
 .text.libgcc   0x0000000000000000        0x0 c:/qmk_msys/mingw64/bin/../lib/gcc/avr/8.5.0/avr5\libgcc.a(_prologue.o)
 .text.libgcc.builtins
                0x0000000000000000        0x0 c:/qmk_msys/mingw64/bin/../lib/gcc/avr/8.5.0/avr5\libgcc.a(_prologue.o)
 .text.libgcc.fmul
                0x0000000000000000        0x0 c:/qmk_msys/mingw64/bin/../lib/gcc/avr/8.5.0/avr5\libgcc.a(_prologue.o)
 .text.libgcc.fixed
                0x0000000000000000        0x0 c:/qmk_msys/mingw64/bin/../lib/gcc/avr/8.5.0/avr5\libgcc.a(_prologue.o)
 .text          0x0000000000000000        0x0 c:/qmk_msys/mingw64/bin/../lib/gcc/avr/8.5.0/avr5\libgcc.a(_epilogue.o)
 .data          0x0000000000000000        0x0 c:/qmk_msys/mingw64/bin/../lib/gcc/avr/8.5.0/avr5\libgcc.a(_epilogue.o)
 .bss           0x0000000000000000        0x0 c:/qmk_msys/mingw64/bin/../lib/gcc/avr/8.5.0/avr5\libgcc.a(_epilogue.o)
 .text.libgcc.mul
                0x0000000000000000        0x0 c:/qmk_msys/mingw64/bin/../lib/gcc/avr/8.5.0/avr5\libgcc.a(_epilogue.o)
 .text.libgcc.div
                0x0000000000000000        0x0 c:/qmk_msys/mingw64/bin/../lib/gcc/avr/8.5.0/avr5\libgcc.a(_epilogue.o)
 .text.libgcc   0x0000000000000000        0x0 c:/qmk_msys/mingw64/bin/../lib/gcc/avr/8.5.0/avr5\libgcc.a(_epilogue.o)
 .text.libgcc.builtins
                0x0000000000000000        0x0 c:/qmk_msys/mingw64/bin/../lib/gcc/avr/8.5.0/avr5\libgcc.a(_epilogue.o)
 .text.libgcc.fmul
                0x0000000000000000        0x0 c:/qmk_msys/mingw64/bin/../lib/gcc/avr/8.5.0/avr5\libgcc.a(_epilogue.o)
 .text.libgcc.fixed
                0x0000000000000000        0x0 c:/qmk_msys/mingw64/bin/../lib/gcc/avr/8.5.0/avr5\libgcc.a(_epilogue.o)
 .text          0x0000000000000000        0x0 c:/qmk_msys/mingw64/bin/../lib/gcc/avr/8.5.0/avr5\libgcc.a(_udivmodhi4.o)
 .data          0x0000000000000000        0x0 c:/qmk_msys/mingw64/bin/../lib/gcc/avr/8.5.0/avr5\libgcc.a(_udivmodhi4.o)
 .bss           0x0000000000000000        0x0 c:/qmk_msys/mingw64/bin/../lib/gcc/avr/8.5.0/avr5\libgcc.a(_udivmodhi4.o)
 .text.libgcc.mul
                0x0000000000000000        0x0 c:/qmk_msys/mingw64/bin/../lib/gcc/avr/8.5.0/avr5\libgcc.a(_udivmodhi4.o)
 .text.libgcc   0x0000000000000000        0x0 c:/qmk_msys/mingw64/bin/../lib/gcc/avr/8.5.0/avr5\libgcc.a(_udivmodhi4.o)
 .text.libgcc.prologue
                0x0000000000000000        0x0 c:/qmk_msys/mingw64/bin/../lib/gcc/avr/8.5.0/avr5\libgcc.a(_udivmodhi4.o)
 .text.libgcc.builtins
                0x0000000000000000        0x0 c:/qmk_msys/mingw64/bin/../lib/gcc/avr/8.5.0/avr5\libgcc.a(_udivmodhi4.o)
 .text.libgcc.fmul
                0x0000000000000000        0x0 c:/qmk_msys/mingw64/bin/../lib/gcc/avr/8.5.0/avr5\libgcc.a(_udivmodhi4.o)
 .text.libgcc.fixed
                0x0000000000000000        0x0 c:/qmk_msys/mingw64/bin/../lib/gcc/avr/8.5.0/avr5\libgcc.a(_udivmodhi4.o)
 .text          0x0000000000000000        0x0 c:/qmk_msys/mingw64/bin/../lib/gcc/avr/8.5.0/../../../../avr/lib/avr5\libc.a(memcmp.o)
 .data          0x0000000000000000        0x0 c:/qmk_msys/mingw64/bin/../lib/gcc/avr/8.5.0/../../../../avr/lib/avr5\libc.a(memcmp.o)
 .bss           0x0000000000000000        0x0 c:/qmk_msys/mingw64/bin/../lib/gcc/avr/8.5.0/../../../../avr/lib/avr5\libc.a(memcmp.o)
 .text          0x0000000000000000        0x0 c:/qmk_msys/mingw64/bin/../lib/gcc/avr/8.5.0/../../../../avr/lib/avr5\libc.a(memcpy.o)
 .data          0x0000000000000000        0x0 c:/qmk_msys/mingw64/bin/../lib/gcc/avr/8.5.0/../../../../avr/lib/avr5\libc.a(memcpy.o)
 .bss           0x0000000000000000        0x0 c:/qmk_msys/mingw64/bin/../lib/gcc/avr/8.5.0/../../../../avr/lib/avr5\libc.a(memcpy.o)
 .text          0x0000000000000000        0x0 c:/qmk_msys/mingw64/bin/../lib/gcc/avr/8.5.0/../../../../avr/lib/avr5\libatmega32u4.a(eerd_byte.o)
 .data          0x0000000000000000        0x0 c:/qmk_msys/mingw64/bin/../lib/gcc/avr/8.5.0/../../../../avr/lib/avr5\libatmega32u4.a(eerd_byte.o)
 .bss           0x0000000000000000        0x0 c:/qmk_msys/mingw64/bin/../lib/gcc/avr/8.5.0/../../../../avr/lib/avr5\libatmega32u4.a(eerd_byte.o)
 .text          0x0000000000000000        0x0 c:/qmk_msys/mingw64/bin/../lib/gcc/avr/8.5.0/../../../../avr/lib/avr5\libatmega32u4.a(eerd_dword.o)
 .data          0x0000000000000000        0x0 c:/qmk_msys/mingw64/bin/../lib/gcc/avr/8.5.0/../../../../avr/lib/avr5\libatmega32u4.a(eerd_dword.o)
 .bss           0x0000000000000000        0x0 c:/qmk_msys/mingw64/bin/../lib/gcc/avr/8.5.0/../../../../avr/lib/avr5\libatmega32u4.a(eerd_dword.o)
 .text.avr-libc
                0x0000000000000000        0xc c:/qmk_msys/mingw64/bin/../lib/gcc/avr/8.5.0/../../../../avr/lib/avr5\libatmega32u4.a(eerd_dword.o)
 .text          0x0000000000000000        0x0 c:/qmk_msys/mingw64/bin/../lib/gcc/avr/8.5.0/../../../../avr/lib/avr5\libatmega32u4.a(eerd_word.o)
 .data          0x0000000000000000        0x0 c:/qmk_msys/mingw64/bin/../lib/gcc/avr/8.5.0/../../../../avr/lib/avr5\libatmega32u4.a(eerd_word.o)
 .bss           0x0000000000000000        0x0 c:/qmk_msys/mingw64/bin/../lib/gcc/avr/8.5.0/../../../../avr/lib/avr5\libatmega32u4.a(eerd_word.o)
 .text          0x0000000000000000        0x0 c:/qmk_msys/mingw64/bin/../lib/gcc/avr/8.5.0/../../../../avr/lib/avr5\libatmega32u4.a(eeupd_byte.o)
 .data          0x0000000000000000        0x0 c:/qmk_msys/mingw64/bin/../lib/gcc/avr/8.5.0/../../../../avr/lib/avr5\libatmega32u4.a(eeupd_byte.o)
 .bss           0x0000000000000000        0x0 c:/qmk_msys/mingw64/bin/../lib/gcc/avr/8.5.0/../../../../avr/lib/avr5\libatmega32u4.a(eeupd_byte.o)
 .text          0x0000000000000000        0x0 c:/qmk_msys/mingw64/bin/../lib/gcc/avr/8.5.0/../../../../avr/lib/avr5\libatmega32u4.a(eeupd_dword.o)
 .data          0x0000000000000000        0x0 c:/qmk_msys/mingw64/bin/../lib/gcc/avr/8.5.0/../../../../avr/lib/avr5\libatmega32u4.a(eeupd_dword.o)
 .bss           0x0000000000000000        0x0 c:/qmk_msys/mingw64/bin/../lib/gcc/avr/8.5.0/../../../../avr/lib/avr5\libatmega32u4.a(eeupd_dword.o)
 .text          0x0000000000000000        0x0 c:/qmk_msys/mingw64/bin/../lib/gcc/avr/8.5.0/../../../../avr/lib/avr5\libatmega32u4.a(eeupd_word.o)
 .data          0x0000000000000000        0x0 c:/qmk_msys/mingw64/bin/../lib/gcc/avr/8.5.0/../../../../avr/lib/avr5\libatmega32u4.a(eeupd_word.o)
 .bss           0x0000000000000000        0x0 c:/qmk_msys/mingw64/bin/../lib/gcc/avr/8.5.0/../../../../avr/lib/avr5\libatmega32u4.a(eeupd_word.o)
 .text          0x0000000000000000        0x0 c:/qmk_msys/mingw64/bin/../lib/gcc/avr/8.5.0/../../../../avr/lib/avr5\libatmega32u4.a(eerd_block.o)
 .data          0x0000000000000000        0x0 c:/qmk_msys/mingw64/bin/../lib/gcc/avr/8.5.0/../../../../avr/lib/avr5\libatmega32u4.a(eerd_block.o)
 .bss           0x0000000000000000        0x0 c:/qmk_msys/mingw64/bin/../lib/gcc/avr/8.5.0/../../../../avr/lib/avr5\libatmega32u4.a(eerd_block.o)

Memory Configuration

Name             Origin             Length             Attributes
text             0x0000000000000000 0x0000000000020000 xr
data             0x0000000000800060 0x000000000000ffa0 rw !x
eeprom           0x0000000000810000 0x0000000000010000 rw !x
fuse             0x0000000000820000 0x0000000000000003 rw !x
lock             0x0000000000830000 0x0000000000000400 rw !x
signature        0x0000000000840000 0x0000000000000400 rw !x
user_signatures  0x0000000000850000 0x0000000000000400 rw !x
*default*        0x0000000000000000 0xffffffffffffffff

Linker script and memory map

Address of section .data set to 0x800100
LOAD c:/qmk_msys/mingw64/bin/../lib/gcc/avr/8.5.0/../../../../avr/lib/avr5/crtatmega32u4.o
LOAD .build/obj_my65_default/keyboards/my65/my65.o
LOAD .build/obj_my65_default/.build/obj_my65/src/default_keyboard.o
LOAD .build/obj_my65_default/quantum/keymap_introspection.o
LOAD .build/obj_my65_default/quantum/quantum.o
LOAD .build/obj_my65_default/quantum/bitwise.o
LOAD .build/obj_my65_default/quantum/led.o
LOAD .build/obj_my65_default/quantum/action.o
LOAD .build/obj_my65_default/quantum/action_layer.o
LOAD .build/obj_my65_default/quantum/action_tapping.o
LOAD .build/obj_my65_default/quantum/action_util.o
LOAD .build/obj_my65_default/quantum/eeconfig.o
LOAD .build/obj_my65_default/quantum/keyboard.o
LOAD .build/obj_my65_default/quantum/keymap_common.o
LOAD .build/obj_my65_default/quantum/keycode_config.o
LOAD .build/obj_my65_default/quantum/sync_timer.o
LOAD .build/obj_my65_default/quantum/logging/debug.o
LOAD .build/obj_my65_default/quantum/logging/sendchar.o
LOAD .build/obj_my65_default/quantum/bootmagic/bootmagic_lite.o
LOAD .build/obj_my65_default/quantum/bootmagic/magic.o
LOAD .build/obj_my65_default/quantum/matrix_common.o
LOAD .build/obj_my65_default/quantum/matrix.o
LOAD .build/obj_my65_default/quantum/debounce/sym_defer_g.o
LOAD .build/obj_my65_default/quantum/main.o
LOAD .build/obj_my65_default/quantum/mousekey.o
LOAD .build/obj_my65_default/quantum/via.o
LOAD .build/obj_my65_default/quantum/process_keycode/process_magic.o
LOAD .build/obj_my65_default/quantum/send_string/send_string.o
LOAD .build/obj_my65_default/quantum/command.o
LOAD .build/obj_my65_default/quantum/dynamic_keymap.o
LOAD .build/obj_my65_default/quantum/process_keycode/process_grave_esc.o
LOAD .build/obj_my65_default/quantum/process_keycode/process_space_cadet.o
LOAD .build/obj_my65_default/platforms/avr/xprintf.o
LOAD .build/obj_my65_default/platforms/avr/printf.o
LOAD .build/obj_my65_default/protocol/host.o
LOAD .build/obj_my65_default/protocol/report.o
LOAD .build/obj_my65_default/protocol/usb_device_state.o
LOAD .build/obj_my65_default/protocol/usb_util.o
LOAD .build/obj_my65_default/platforms/suspend.o
LOAD .build/obj_my65_default/platforms/avr/hardware_id.o
LOAD .build/obj_my65_default/platforms/avr/platform.o
LOAD .build/obj_my65_default/platforms/avr/suspend.o
LOAD .build/obj_my65_default/platforms/avr/timer.o
LOAD .build/obj_my65_default/platforms/avr/bootloaders/dfu.o
LOAD .build/obj_my65_default/lufa.o
LOAD .build/obj_my65_default/usb_descriptor.o
LOAD .build/obj_my65_default/lib/lufa/LUFA/Drivers/USB/Class/Common/HIDParser.o
LOAD .build/obj_my65_default/lib/lufa/LUFA/Drivers/USB/Core/AVR8/Device_AVR8.o
LOAD .build/obj_my65_default/lib/lufa/LUFA/Drivers/USB/Core/AVR8/EndpointStream_AVR8.o
LOAD .build/obj_my65_default/lib/lufa/LUFA/Drivers/USB/Core/AVR8/Endpoint_AVR8.o
LOAD .build/obj_my65_default/lib/lufa/LUFA/Drivers/USB/Core/AVR8/Host_AVR8.o
LOAD .build/obj_my65_default/lib/lufa/LUFA/Drivers/USB/Core/AVR8/PipeStream_AVR8.o
LOAD .build/obj_my65_default/lib/lufa/LUFA/Drivers/USB/Core/AVR8/Pipe_AVR8.o
LOAD .build/obj_my65_default/lib/lufa/LUFA/Drivers/USB/Core/AVR8/USBController_AVR8.o
LOAD .build/obj_my65_default/lib/lufa/LUFA/Drivers/USB/Core/AVR8/USBInterrupt_AVR8.o
LOAD .build/obj_my65_default/lib/lufa/LUFA/Drivers/USB/Core/ConfigDescriptors.o
LOAD .build/obj_my65_default/lib/lufa/LUFA/Drivers/USB/Core/DeviceStandardReq.o
LOAD .build/obj_my65_default/lib/lufa/LUFA/Drivers/USB/Core/Events.o
LOAD .build/obj_my65_default/lib/lufa/LUFA/Drivers/USB/Core/HostStandardReq.o
LOAD .build/obj_my65_default/lib/lufa/LUFA/Drivers/USB/Core/USBTask.o
LOAD .build/obj_my65_default/protocol/lufa/usb_util.o
LOAD c:/qmk_msys/mingw64/bin/../lib/gcc/avr/8.5.0/../../../../avr/lib/avr5\libm.a
START GROUP
LOAD c:/qmk_msys/mingw64/bin/../lib/gcc/avr/8.5.0/avr5\libgcc.a
LOAD c:/qmk_msys/mingw64/bin/../lib/gcc/avr/8.5.0/../../../../avr/lib/avr5\libm.a
LOAD c:/qmk_msys/mingw64/bin/../lib/gcc/avr/8.5.0/../../../../avr/lib/avr5\libc.a
LOAD c:/qmk_msys/mingw64/bin/../lib/gcc/avr/8.5.0/../../../../avr/lib/avr5\libatmega32u4.a
END GROUP
                0x0000000000020000                __TEXT_REGION_LENGTH__ = DEFINED (__TEXT_REGION_LENGTH__)?__TEXT_REGION_LENGTH__:0x20000
                0x000000000000ffa0                __DATA_REGION_LENGTH__ = DEFINED (__DATA_REGION_LENGTH__)?__DATA_REGION_LENGTH__:0xffa0
                0x0000000000010000                __EEPROM_REGION_LENGTH__ = DEFINED (__EEPROM_REGION_LENGTH__)?__EEPROM_REGION_LENGTH__:0x10000
                [0x0000000000000003]                __FUSE_REGION_LENGTH__ = DEFINED (__FUSE_REGION_LENGTH__)?__FUSE_REGION_LENGTH__:0x400
                0x0000000000000400                __LOCK_REGION_LENGTH__ = DEFINED (__LOCK_REGION_LENGTH__)?__LOCK_REGION_LENGTH__:0x400
                0x0000000000000400                __SIGNATURE_REGION_LENGTH__ = DEFINED (__SIGNATURE_REGION_LENGTH__)?__SIGNATURE_REGION_LENGTH__:0x400
                0x0000000000000400                __USER_SIGNATURE_REGION_LENGTH__ = DEFINED (__USER_SIGNATURE_REGION_LENGTH__)?__USER_SIGNATURE_REGION_LENGTH__:0x400

.hash
 *(.hash)

.dynsym
 *(.dynsym)

.dynstr
 *(.dynstr)

.gnu.version
 *(.gnu.version)

.gnu.version_d
 *(.gnu.version_d)

.gnu.version_r
 *(.gnu.version_r)

.rel.init
 *(.rel.init)

.rela.init
 *(.rela.init)

.rel.text
 *(.rel.text)
 *(.rel.text.*)
 *(.rel.gnu.linkonce.t*)

.rela.text
 *(.rela.text)
 *(.rela.text.*)
 *(.rela.gnu.linkonce.t*)

.rel.fini
 *(.rel.fini)

.rela.fini
 *(.rela.fini)

.rel.rodata
 *(.rel.rodata)
 *(.rel.rodata.*)
 *(.rel.gnu.linkonce.r*)

.rela.rodata
 *(.rela.rodata)
 *(.rela.rodata.*)
 *(.rela.gnu.linkonce.r*)

.rel.data
 *(.rel.data)
 *(.rel.data.*)
 *(.rel.gnu.linkonce.d*)

.rela.data
 *(.rela.data)
 *(.rela.data.*)
 *(.rela.gnu.linkonce.d*)

.rel.ctors
 *(.rel.ctors)

.rela.ctors
 *(.rela.ctors)

.rel.dtors
 *(.rel.dtors)

.rela.dtors
 *(.rela.dtors)

.rel.got
 *(.rel.got)

.rela.got
 *(.rela.got)

.rel.bss
 *(.rel.bss)

.rela.bss
 *(.rela.bss)

.rel.plt
 *(.rel.plt)

.rela.plt
 *(.rela.plt)

.text           0x0000000000000000     0x5996
 *(.vectors)
 .vectors       0x0000000000000000       0xac c:/qmk_msys/mingw64/bin/../lib/gcc/avr/8.5.0/../../../../avr/lib/avr5/crtatmega32u4.o
                0x0000000000000000                __vector_default
                0x0000000000000000                __vectors
 *(.vectors)
 *(.progmem.gcc*)
                0x00000000000000ac                . = ALIGN (0x2)
                0x00000000000000ac                __trampolines_start = .
 *(.trampolines)
 .trampolines   0x00000000000000ac        0x0 linker stubs
 *(.trampolines*)
                0x00000000000000ac                __trampolines_end = .
 *libprintf_flt.a:*(.progmem.data)
 *libc.a:*(.progmem.data)
 *(.progmem.*)
 .progmem.data.keymaps
                0x00000000000000ac       0xc0 .build/obj_my65_default/quantum/keymap_introspection.o
                0x00000000000000ac                keymaps
 .progmem.data.__c.4076
                0x000000000000016c       0x12 .build/obj_my65_default/quantum/quantum.o
 .progmem.data.__c.4074
                0x000000000000017e       0x11 .build/obj_my65_default/quantum/quantum.o
 .progmem.data.__c.2276
                0x000000000000018f        0x2 .build/obj_my65_default/quantum/led.o
 .progmem.data.__c.2274
                0x0000000000000191        0x5 .build/obj_my65_default/quantum/led.o
 .progmem.data.__c.2272
                0x0000000000000196        0xb .build/obj_my65_default/quantum/led.o
 .progmem.data.__c.2866
                0x00000000000001a1       0x15 .build/obj_my65_default/quantum/action_util.o
 .progmem.data.__c.4034
                0x00000000000001b6        0x2 .build/obj_my65_default/quantum/matrix_common.o
 .progmem.data.__c.4032
                0x00000000000001b8        0x6 .build/obj_my65_default/quantum/matrix_common.o
 .progmem.data.__c.4030
                0x00000000000001be        0x3 .build/obj_my65_default/quantum/matrix_common.o
 .progmem.data.__c.4028
                0x00000000000001c1        0x5 .build/obj_my65_default/quantum/matrix_common.o
 .progmem.data.__c.4025
                0x00000000000001c6       0x17 .build/obj_my65_default/quantum/matrix_common.o
 .progmem.data.__c.2461
                0x00000000000001dd        0x3 .build/obj_my65_default/quantum/mousekey.o
 .progmem.data.__c.2459
                0x00000000000001e0        0x3 .build/obj_my65_default/quantum/mousekey.o
 .progmem.data.__c.2457
                0x00000000000001e3        0x2 .build/obj_my65_default/quantum/mousekey.o
 .progmem.data.__c.2455
                0x00000000000001e5        0x3 .build/obj_my65_default/quantum/mousekey.o
 .progmem.data.__c.2453
                0x00000000000001e8        0x3 .build/obj_my65_default/quantum/mousekey.o
 .progmem.data.__c.2451
                0x00000000000001eb        0x3 .build/obj_my65_default/quantum/mousekey.o
 .progmem.data.__c.2449
                0x00000000000001ee        0x2 .build/obj_my65_default/quantum/mousekey.o
 .progmem.data.__c.2447
                0x00000000000001f0        0x3 .build/obj_my65_default/quantum/mousekey.o
 .progmem.data.__c.2445
                0x00000000000001f3        0x2 .build/obj_my65_default/quantum/mousekey.o
 .progmem.data.__c.2443
                0x00000000000001f5        0x3 .build/obj_my65_default/quantum/mousekey.o
 .progmem.data.__c.2441
                0x00000000000001f8        0x2 .build/obj_my65_default/quantum/mousekey.o
 .progmem.data.__c.2439
                0x00000000000001fa        0x3 .build/obj_my65_default/quantum/mousekey.o
 .progmem.data.__c.2437
                0x00000000000001fd        0x2 .build/obj_my65_default/quantum/mousekey.o
 .progmem.data.__c.2435
                0x00000000000001ff        0x5 .build/obj_my65_default/quantum/mousekey.o
 .progmem.data.__c.2433
                0x0000000000000204       0x23 .build/obj_my65_default/quantum/mousekey.o
 .progmem.data.ascii_to_keycode_lut
                0x0000000000000227       0x80 .build/obj_my65_default/quantum/send_string/send_string.o
                0x0000000000000227                ascii_to_keycode_lut
 .progmem.data.ascii_to_dead_lut
                0x00000000000002a7       0x10 .build/obj_my65_default/quantum/send_string/send_string.o
                0x00000000000002a7                ascii_to_dead_lut
 .progmem.data.ascii_to_altgr_lut
                0x00000000000002b7       0x10 .build/obj_my65_default/quantum/send_string/send_string.o
                0x00000000000002b7                ascii_to_altgr_lut
 .progmem.data.ascii_to_shift_lut
                0x00000000000002c7       0x10 .build/obj_my65_default/quantum/send_string/send_string.o
                0x00000000000002c7                ascii_to_shift_lut
 .progmem.data.__c.4149
                0x00000000000002d7       0x7d .build/obj_my65_default/quantum/command.o
 .progmem.data.__c.4154
                0x0000000000000354       0xcc .build/obj_my65_default/quantum/command.o
 .progmem.data.__c.4205
                0x0000000000000420        0x4 .build/obj_my65_default/quantum/command.o
 .progmem.data.__c.4203
                0x0000000000000424        0x9 .build/obj_my65_default/quantum/command.o
 .progmem.data.__c.4201
                0x000000000000042d        0x3 .build/obj_my65_default/quantum/command.o
 .progmem.data.__c.4199
                0x0000000000000430        0x6 .build/obj_my65_default/quantum/command.o
 .progmem.data.__c.4196
                0x0000000000000436        0x3 .build/obj_my65_default/quantum/command.o
 .progmem.data.__c.4193
                0x0000000000000439        0xa .build/obj_my65_default/quantum/command.o
 .progmem.data.__c.4186
                0x0000000000000443        0x4 .build/obj_my65_default/quantum/command.o
 .progmem.data.__c.4184
                0x0000000000000447        0x3 .build/obj_my65_default/quantum/command.o
 .progmem.data.__c.4173
                0x000000000000044a        0xe .build/obj_my65_default/quantum/command.o
 .progmem.data.__c.4170
                0x0000000000000458        0x3 .build/obj_my65_default/quantum/command.o
 .progmem.data.__c.4165
                0x000000000000045b       0x10 .build/obj_my65_default/quantum/command.o
 .progmem.data.__c.4144
                0x000000000000046b        0x2 .build/obj_my65_default/quantum/command.o
 .progmem.data.__c.4138
                0x000000000000046d        0x4 .build/obj_my65_default/quantum/command.o
 .progmem.data.__c.4210
                0x0000000000000471        0x5 .build/obj_my65_default/quantum/command.o
 .progmem.data.__c.4068
                0x0000000000000476       0x6b .build/obj_my65_default/quantum/command.o
 .progmem.data.__c.4063
                0x00000000000004e1        0x3 .build/obj_my65_default/quantum/command.o
 .progmem.data.__c.4131
                0x00000000000004e4       0x27 .build/obj_my65_default/quantum/command.o
 .progmem.data.__c.4058
                0x000000000000050b      0x1a6 .build/obj_my65_default/quantum/command.o
 .progmem.data.__c.4079
                0x00000000000006b1       0xff .build/obj_my65_default/quantum/command.o
 .progmem.data.__c.4076
                0x00000000000007b0       0x49 .build/obj_my65_default/quantum/command.o
 .progmem.data.__c.4073
                0x00000000000007f9       0x1d .build/obj_my65_default/quantum/command.o
 .progmem.data.__c.4126
                0x0000000000000816        0x2 .build/obj_my65_default/quantum/command.o
 .progmem.data.__c.4116
                0x0000000000000818        0xd .build/obj_my65_default/quantum/command.o
 .progmem.data.__c.4114
                0x0000000000000825        0xc .build/obj_my65_default/quantum/command.o
 .progmem.data.__c.4111
                0x0000000000000831       0x10 .build/obj_my65_default/quantum/command.o
 .progmem.data.__c.4109
                0x0000000000000841        0xf .build/obj_my65_default/quantum/command.o
 .progmem.data.__c.4106
                0x0000000000000850        0xe .build/obj_my65_default/quantum/command.o
 .progmem.data.__c.4104
                0x000000000000085e        0xd .build/obj_my65_default/quantum/command.o
 .progmem.data.__c.4101
                0x000000000000086b        0xd .build/obj_my65_default/quantum/command.o
 .progmem.data.__c.4099
                0x0000000000000878        0xc .build/obj_my65_default/quantum/command.o
 .progmem.data.__c.4096
                0x0000000000000884       0x1c .build/obj_my65_default/quantum/command.o
 .progmem.data.__c.4092
                0x00000000000008a0        0x4 .build/obj_my65_default/quantum/command.o
 .progmem.data.__c.4087
                0x00000000000008a4       0x11 .build/obj_my65_default/quantum/command.o
 .progmem.data.__c.4034
                0x00000000000008b5        0x2 .build/obj_my65_default/protocol/host.o
 .progmem.data.__c.4029
                0x00000000000008b7        0x6 .build/obj_my65_default/protocol/host.o
 .progmem.data.__c.4026
                0x00000000000008bd       0x12 .build/obj_my65_default/protocol/host.o
 .progmem.data.__c.6757
                0x00000000000008cf        0x4 .build/obj_my65_default/lufa.o
 .progmem.data.__c.6633
                0x00000000000008d3        0x4 .build/obj_my65_default/lufa.o
 .progmem.data.__c.6629
                0x00000000000008d7        0x4 .build/obj_my65_default/lufa.o
 .progmem.data.__c.6625
                0x00000000000008db        0x4 .build/obj_my65_default/lufa.o
 .progmem.data.__c.6620
                0x00000000000008df        0x4 .build/obj_my65_default/lufa.o
 .progmem.data.__c.6615
                0x00000000000008e3        0x4 .build/obj_my65_default/lufa.o
 .progmem.data.ProductString
                0x00000000000008e7        0xc .build/obj_my65_default/usb_descriptor.o
                0x00000000000008e7                ProductString
 .progmem.data.ManufacturerString
                0x00000000000008f3        0xc .build/obj_my65_default/usb_descriptor.o
                0x00000000000008f3                ManufacturerString
 .progmem.data.LanguageString
                0x00000000000008ff        0x4 .build/obj_my65_default/usb_descriptor.o
                0x00000000000008ff                LanguageString
 .progmem.data.ConfigurationDescriptor
                0x0000000000000903       0x7b .build/obj_my65_default/usb_descriptor.o
                0x0000000000000903                ConfigurationDescriptor
 .progmem.data.DeviceDescriptor
                0x000000000000097e       0x12 .build/obj_my65_default/usb_descriptor.o
                0x000000000000097e                DeviceDescriptor
 .progmem.data.ConsoleReport
                0x0000000000000990       0x22 .build/obj_my65_default/usb_descriptor.o
                0x0000000000000990                ConsoleReport
 .progmem.data.RawReport
                0x00000000000009b2       0x22 .build/obj_my65_default/usb_descriptor.o
                0x00000000000009b2                RawReport
 .progmem.data.SharedReport
                0x00000000000009d4       0x7b .build/obj_my65_default/usb_descriptor.o
                0x00000000000009d4                SharedReport
 .progmem.data.KeyboardReport
                0x0000000000000a4f       0x40 .build/obj_my65_default/usb_descriptor.o
                0x0000000000000a4f                KeyboardReport
                0x0000000000000a90                . = ALIGN (0x2)
 *fill*         0x0000000000000a8f        0x1 
 *(.lowtext)
 *(.lowtext*)
                0x0000000000000a90                __ctors_start = .
 *(.ctors)
                0x0000000000000a90                __ctors_end = .
                0x0000000000000a90                __dtors_start = .
 *(.dtors)
                0x0000000000000a90                __dtors_end = .
 SORT_BY_NAME(*)(.ctors)
 SORT_BY_NAME(*)(.dtors)
 *(.init0)
 .init0         0x0000000000000a90        0x0 c:/qmk_msys/mingw64/bin/../lib/gcc/avr/8.5.0/../../../../avr/lib/avr5/crtatmega32u4.o
                0x0000000000000a90                __init
 *(.init0)
 *(.init1)
 *(.init1)
 *(.init2)
 .init2         0x0000000000000a90        0xc c:/qmk_msys/mingw64/bin/../lib/gcc/avr/8.5.0/../../../../avr/lib/avr5/crtatmega32u4.o
 *(.init2)
 *(.init3)
 .init3         0x0000000000000a9c       0x36 .build/obj_my65_default/platforms/avr/bootloaders/dfu.o
                0x0000000000000a9c                bootloader_jump_after_watchdog_reset
 *(.init3)
 *(.init4)
 .init4         0x0000000000000ad2       0x16 c:/qmk_msys/mingw64/bin/../lib/gcc/avr/8.5.0/avr5\libgcc.a(_copy_data.o)
                0x0000000000000ad2                __do_copy_data
 .init4         0x0000000000000ae8       0x10 c:/qmk_msys/mingw64/bin/../lib/gcc/avr/8.5.0/avr5\libgcc.a(_clear_bss.o)
                0x0000000000000ae8                __do_clear_bss
 *(.init4)
 *(.init5)
 *(.init5)
 *(.init6)
 *(.init6)
 *(.init7)
 *(.init7)
 *(.init8)
 *(.init8)
 *(.init9)
 .init9         0x0000000000000af8        0x8 c:/qmk_msys/mingw64/bin/../lib/gcc/avr/8.5.0/../../../../avr/lib/avr5/crtatmega32u4.o
 *(.init9)
 *(.text)
 .text          0x0000000000000b00        0x4 c:/qmk_msys/mingw64/bin/../lib/gcc/avr/8.5.0/../../../../avr/lib/avr5/crtatmega32u4.o
                0x0000000000000b00                __vector_38
                0x0000000000000b00                __vector_22
                0x0000000000000b00                __vector_28
                0x0000000000000b00                __vector_1
                0x0000000000000b00                __vector_32
                0x0000000000000b00                __vector_34
                0x0000000000000b00                __vector_24
                0x0000000000000b00                __bad_interrupt
                0x0000000000000b00                __vector_6
                0x0000000000000b00                __vector_31
                0x0000000000000b00                __vector_35
                0x0000000000000b00                __vector_39
                0x0000000000000b00                __vector_3
                0x0000000000000b00                __vector_23
                0x0000000000000b00                __vector_30
                0x0000000000000b00                __vector_25
                0x0000000000000b00                __vector_13
                0x0000000000000b00                __vector_17
                0x0000000000000b00                __vector_19
                0x0000000000000b00                __vector_7
                0x0000000000000b00                __vector_41
                0x0000000000000b00                __vector_27
                0x0000000000000b00                __vector_5
                0x0000000000000b00                __vector_33
                0x0000000000000b00                __vector_37
                0x0000000000000b00                __vector_4
                0x0000000000000b00                __vector_9
                0x0000000000000b00                __vector_2
                0x0000000000000b00                __vector_15
                0x0000000000000b00                __vector_36
                0x0000000000000b00                __vector_29
                0x0000000000000b00                __vector_40
                0x0000000000000b00                __vector_8
                0x0000000000000b00                __vector_26
                0x0000000000000b00                __vector_14
                0x0000000000000b00                __vector_16
                0x0000000000000b00                __vector_18
                0x0000000000000b00                __vector_20
                0x0000000000000b00                __vector_42
 .text          0x0000000000000b04      0x15c .build/obj_my65_default/platforms/avr/xprintf.o
                0x0000000000000b04                xputc
                0x0000000000000b1c                xputs
                0x0000000000000b2a                xitoa
                0x0000000000000c4e                __xprintf
                0x0000000000000c60                . = ALIGN (0x2)
 *(.text.*)
 .text.keymap_layer_count
                0x0000000000000c60        0x4 .build/obj_my65_default/quantum/keymap_introspection.o
                0x0000000000000c60                keymap_layer_count
 .text.process_action_kb
                0x0000000000000c64        0x4 .build/obj_my65_default/quantum/quantum.o
                0x0000000000000c64                process_action_kb
 .text.process_record_user
                0x0000000000000c68        0x4 .build/obj_my65_default/quantum/quantum.o
                0x0000000000000c68                process_record_user
 .text.process_record_kb
                0x0000000000000c6c        0x6 .build/obj_my65_default/quantum/quantum.o
                0x0000000000000c6c                process_record_kb
 .text.post_process_record_user
                0x0000000000000c72        0x2 .build/obj_my65_default/quantum/quantum.o
                0x0000000000000c72                post_process_record_user
 .text.post_process_record_kb
                0x0000000000000c74        0x6 .build/obj_my65_default/quantum/quantum.o
                0x0000000000000c74                post_process_record_kb
 .text.get_event_keycode
                0x0000000000000c7a       0x58 .build/obj_my65_default/quantum/quantum.o
                0x0000000000000c7a                get_event_keycode
 .text.get_record_keycode
                0x0000000000000cd2       0x14 .build/obj_my65_default/quantum/quantum.o
                0x0000000000000cd2                get_record_keycode
 .text.pre_process_record_quantum
                0x0000000000000ce6        0x4 .build/obj_my65_default/quantum/quantum.o
                0x0000000000000ce6                pre_process_record_quantum
 .text.post_process_record_quantum
                0x0000000000000cea       0x18 .build/obj_my65_default/quantum/quantum.o
                0x0000000000000cea                post_process_record_quantum
 .text.update_tri_layer_state
                0x0000000000000d02       0x3a .build/obj_my65_default/quantum/quantum.o
                0x0000000000000d02                update_tri_layer_state
 .text.update_tri_layer
                0x0000000000000d3c       0x14 .build/obj_my65_default/quantum/quantum.o
                0x0000000000000d3c                update_tri_layer
 .text.matrix_init_quantum
                0x0000000000000d50        0x6 .build/obj_my65_default/quantum/quantum.o
                0x0000000000000d50                matrix_init_quantum
 .text.matrix_scan_quantum
                0x0000000000000d56        0x6 .build/obj_my65_default/quantum/quantum.o
                0x0000000000000d56                matrix_scan_quantum
 .text.shutdown_user
                0x0000000000000d5c        0x2 .build/obj_my65_default/quantum/quantum.o
                0x0000000000000d5c                shutdown_user
 .text.shutdown_quantum
                0x0000000000000d5e       0x1c .build/obj_my65_default/quantum/quantum.o
                0x0000000000000d5e                shutdown_quantum
 .text.reset_keyboard
                0x0000000000000d7a        0xa .build/obj_my65_default/quantum/quantum.o
                0x0000000000000d7a                reset_keyboard
 .text.soft_reset_keyboard
                0x0000000000000d84        0xa .build/obj_my65_default/quantum/quantum.o
                0x0000000000000d84                soft_reset_keyboard
 .text.process_record_quantum
                0x0000000000000d8e       0xde .build/obj_my65_default/quantum/quantum.o
                0x0000000000000d8e                process_record_quantum
 .text.suspend_power_down_quantum
                0x0000000000000e6c        0xa .build/obj_my65_default/quantum/quantum.o
                0x0000000000000e6c                suspend_power_down_quantum
 .text.suspend_wakeup_init_quantum
                0x0000000000000e76        0xa .build/obj_my65_default/quantum/quantum.o
                0x0000000000000e76                suspend_wakeup_init_quantum
 .text.bitrev   0x0000000000000e80       0x30 .build/obj_my65_default/quantum/bitwise.o
                0x0000000000000e80                bitrev
 .text.bitrev16
                0x0000000000000eb0       0x1a .build/obj_my65_default/quantum/bitwise.o
                0x0000000000000eb0                bitrev16
 .text.led_set_user
                0x0000000000000eca        0x2 .build/obj_my65_default/quantum/led.o
                0x0000000000000eca                led_set_user
 .text.led_set_kb
                0x0000000000000ecc        0x6 .build/obj_my65_default/quantum/led.o
                0x0000000000000ecc                led_set_kb
 .text.led_update_user
                0x0000000000000ed2        0x4 .build/obj_my65_default/quantum/led.o
                0x0000000000000ed2                led_update_user
 .text.led_update_kb
                0x0000000000000ed6        0x6 .build/obj_my65_default/quantum/led.o
                0x0000000000000ed6                led_update_kb
 .text.led_init_ports
                0x0000000000000edc        0x2 .build/obj_my65_default/quantum/led.o
                0x0000000000000edc                led_init_ports
 .text.led_set  0x0000000000000ede       0x12 .build/obj_my65_default/quantum/led.o
                0x0000000000000ede                led_set
 .text.led_suspend
                0x0000000000000ef0        0x8 .build/obj_my65_default/quantum/led.o
                0x0000000000000ef0                led_suspend
 .text.led_wakeup
                0x0000000000000ef8        0xa .build/obj_my65_default/quantum/led.o
                0x0000000000000ef8                led_wakeup
 .text.led_task
                0x0000000000000f02       0x76 .build/obj_my65_default/quantum/led.o
                0x0000000000000f02                led_task
 .text.action_exec
                0x0000000000000f78       0x6a .build/obj_my65_default/quantum/action.o
                0x0000000000000f78                action_exec
 .text.process_record_tap_hint
                0x0000000000000fe2        0xc .build/obj_my65_default/quantum/action.o
                0x0000000000000fe2                process_record_tap_hint
 .text.register_code
                0x0000000000000fee       0xa2 .build/obj_my65_default/quantum/action.o
                0x0000000000000fee                register_code
 .text.unregister_code
                0x0000000000001090       0x64 .build/obj_my65_default/quantum/action.o
                0x0000000000001090                unregister_code
 .text.tap_code_delay
                0x00000000000010f4       0x30 .build/obj_my65_default/quantum/action.o
                0x00000000000010f4                tap_code_delay
 .text.tap_code
                0x0000000000001124       0x12 .build/obj_my65_default/quantum/action.o
                0x0000000000001124                tap_code
 .text.register_mods
                0x0000000000001136        0xe .build/obj_my65_default/quantum/action.o
                0x0000000000001136                register_mods
 .text.unregister_mods
                0x0000000000001144        0xe .build/obj_my65_default/quantum/action.o
                0x0000000000001144                unregister_mods
 .text.process_action
                0x0000000000001152      0x3dc .build/obj_my65_default/quantum/action.o
                0x0000000000001152                process_action
 .text.process_record_handler
                0x000000000000152e       0x30 .build/obj_my65_default/quantum/action.o
                0x000000000000152e                process_record_handler
 .text.process_record
                0x000000000000155e       0x54 .build/obj_my65_default/quantum/action.o
                0x000000000000155e                process_record
 .text.clear_keyboard_but_mods_and_keys
                0x00000000000015b2       0x22 .build/obj_my65_default/quantum/action.o
                0x00000000000015b2                clear_keyboard_but_mods_and_keys
 .text.clear_keyboard_but_mods
                0x00000000000015d4        0xa .build/obj_my65_default/quantum/action.o
                0x00000000000015d4                clear_keyboard_but_mods
 .text.clear_keyboard
                0x00000000000015de        0xa .build/obj_my65_default/quantum/action.o
                0x00000000000015de                clear_keyboard
 .text.is_tap_action
                0x00000000000015e8       0x36 .build/obj_my65_default/quantum/action.o
                0x00000000000015e8                is_tap_action
 .text.is_tap_record
                0x000000000000161e       0x26 .build/obj_my65_default/quantum/action.o
                0x000000000000161e                is_tap_record
 .text.debug_event
                0x0000000000001644       0x14 .build/obj_my65_default/quantum/action.o
                0x0000000000001644                debug_event
 .text.debug_record
                0x0000000000001658       0x14 .build/obj_my65_default/quantum/action.o
                0x0000000000001658                debug_record
 .text.default_layer_state_set_user
                0x000000000000166c        0x2 .build/obj_my65_default/quantum/action_layer.o
                0x000000000000166c                default_layer_state_set_user
 .text.default_layer_state_set_kb
                0x000000000000166e        0x6 .build/obj_my65_default/quantum/action_layer.o
                0x000000000000166e                default_layer_state_set_kb
 .text.default_layer_state_set
                0x0000000000001674        0xe .build/obj_my65_default/quantum/action_layer.o
 .text.default_layer_debug
                0x0000000000001682        0x2 .build/obj_my65_default/quantum/action_layer.o
                0x0000000000001682                default_layer_debug
 .text.default_layer_set
                0x0000000000001684        0x6 .build/obj_my65_default/quantum/action_layer.o
                0x0000000000001684                default_layer_set
 .text.default_layer_or
                0x000000000000168a        0xc .build/obj_my65_default/quantum/action_layer.o
                0x000000000000168a                default_layer_or
 .text.default_layer_and
                0x0000000000001696        0xc .build/obj_my65_default/quantum/action_layer.o
                0x0000000000001696                default_layer_and
 .text.default_layer_xor
                0x00000000000016a2        0xc .build/obj_my65_default/quantum/action_layer.o
                0x00000000000016a2                default_layer_xor
 .text.layer_state_set_user
                0x00000000000016ae        0x6 .build/obj_my65_default/quantum/action_layer.o
                0x00000000000016ae                layer_state_set_user
 .text.layer_state_set_kb
                0x00000000000016b4        0x6 .build/obj_my65_default/quantum/action_layer.o
                0x00000000000016b4                layer_state_set_kb
 .text.layer_state_set
                0x00000000000016ba        0xe .build/obj_my65_default/quantum/action_layer.o
                0x00000000000016ba                layer_state_set
 .text.layer_clear
                0x00000000000016c8        0x8 .build/obj_my65_default/quantum/action_layer.o
                0x00000000000016c8                layer_clear
 .text.layer_move
                0x00000000000016d0       0x12 .build/obj_my65_default/quantum/action_layer.o
                0x00000000000016d0                layer_move
 .text.layer_on
                0x00000000000016e2       0x18 .build/obj_my65_default/quantum/action_layer.o
                0x00000000000016e2                layer_on
 .text.layer_off
                0x00000000000016fa       0x1a .build/obj_my65_default/quantum/action_layer.o
                0x00000000000016fa                layer_off
 .text.layer_invert
                0x0000000000001714       0x18 .build/obj_my65_default/quantum/action_layer.o
                0x0000000000001714                layer_invert
 .text.layer_or
                0x000000000000172c        0xc .build/obj_my65_default/quantum/action_layer.o
                0x000000000000172c                layer_or
 .text.layer_and
                0x0000000000001738        0xc .build/obj_my65_default/quantum/action_layer.o
                0x0000000000001738                layer_and
 .text.layer_xor
                0x0000000000001744        0xc .build/obj_my65_default/quantum/action_layer.o
                0x0000000000001744                layer_xor
 .text.layer_debug
                0x0000000000001750        0x2 .build/obj_my65_default/quantum/action_layer.o
                0x0000000000001750                layer_debug
 .text.update_source_layers_cache_impl
                0x0000000000001752       0x5a .build/obj_my65_default/quantum/action_layer.o
                0x0000000000001752                update_source_layers_cache_impl
 .text.read_source_layers_cache_impl
                0x00000000000017ac       0x4e .build/obj_my65_default/quantum/action_layer.o
                0x00000000000017ac                read_source_layers_cache_impl
 .text.update_source_layers_cache
                0x00000000000017fa       0x22 .build/obj_my65_default/quantum/action_layer.o
                0x00000000000017fa                update_source_layers_cache
 .text.read_source_layers_cache
                0x000000000000181c       0x24 .build/obj_my65_default/quantum/action_layer.o
                0x000000000000181c                read_source_layers_cache
 .text.layer_switch_get_layer
                0x0000000000001840       0x5a .build/obj_my65_default/quantum/action_layer.o
                0x0000000000001840                layer_switch_get_layer
 .text.layer_switch_get_action
                0x000000000000189a       0x16 .build/obj_my65_default/quantum/action_layer.o
                0x000000000000189a                layer_switch_get_action
 .text.store_or_get_action
                0x00000000000018b0       0x46 .build/obj_my65_default/quantum/action_layer.o
                0x00000000000018b0                store_or_get_action
 .text.debug_waiting_buffer
                0x00000000000018f6       0x42 .build/obj_my65_default/quantum/action_tapping.o
 .text.debug_tapping_key
                0x0000000000001938       0x1e .build/obj_my65_default/quantum/action_tapping.o
 .text.waiting_buffer_scan_tap
                0x0000000000001956       0xaa .build/obj_my65_default/quantum/action_tapping.o
 .text.process_tapping
                0x0000000000001a00      0x30e .build/obj_my65_default/quantum/action_tapping.o
 .text.action_tapping_process
                0x0000000000001d0e      0x11e .build/obj_my65_default/quantum/action_tapping.o
                0x0000000000001d0e                action_tapping_process
 .text.add_key  0x0000000000001e2c       0x10 .build/obj_my65_default/quantum/action_util.o
                0x0000000000001e2c                add_key
 .text.del_key  0x0000000000001e3c       0x10 .build/obj_my65_default/quantum/action_util.o
                0x0000000000001e3c                del_key
 .text.clear_keys
                0x0000000000001e4c        0xe .build/obj_my65_default/quantum/action_util.o
                0x0000000000001e4c                clear_keys
 .text.get_oneshot_layer
                0x0000000000001e5a        0xc .build/obj_my65_default/quantum/action_util.o
                0x0000000000001e5a                get_oneshot_layer
 .text.get_oneshot_layer_state
                0x0000000000001e66        0x8 .build/obj_my65_default/quantum/action_util.o
                0x0000000000001e66                get_oneshot_layer_state
 .text.is_oneshot_layer_active
                0x0000000000001e6e        0xe .build/obj_my65_default/quantum/action_util.o
                0x0000000000001e6e                is_oneshot_layer_active
 .text.get_mods
                0x0000000000001e7c        0x6 .build/obj_my65_default/quantum/action_util.o
                0x0000000000001e7c                get_mods
 .text.add_mods
                0x0000000000001e82        0xc .build/obj_my65_default/quantum/action_util.o
                0x0000000000001e82                add_mods
 .text.del_mods
                0x0000000000001e8e        0xe .build/obj_my65_default/quantum/action_util.o
                0x0000000000001e8e                del_mods
 .text.clear_mods
                0x0000000000001e9c        0x6 .build/obj_my65_default/quantum/action_util.o
                0x0000000000001e9c                clear_mods
 .text.add_weak_mods
                0x0000000000001ea2        0xc .build/obj_my65_default/quantum/action_util.o
                0x0000000000001ea2                add_weak_mods
 .text.del_weak_mods
                0x0000000000001eae        0xe .build/obj_my65_default/quantum/action_util.o
                0x0000000000001eae                del_weak_mods
 .text.clear_weak_mods
                0x0000000000001ebc        0x6 .build/obj_my65_default/quantum/action_util.o
                0x0000000000001ebc                clear_weak_mods
 .text.get_oneshot_mods
                0x0000000000001ec2        0x6 .build/obj_my65_default/quantum/action_util.o
                0x0000000000001ec2                get_oneshot_mods
 .text.oneshot_mods_changed_user
                0x0000000000001ec8        0x2 .build/obj_my65_default/quantum/action_util.o
                0x0000000000001ec8                oneshot_mods_changed_user
 .text.oneshot_mods_changed_kb
                0x0000000000001eca        0x6 .build/obj_my65_default/quantum/action_util.o
                0x0000000000001eca                oneshot_mods_changed_kb
 .text.set_oneshot_mods
                0x0000000000001ed0       0x1a .build/obj_my65_default/quantum/action_util.o
                0x0000000000001ed0                set_oneshot_mods
 .text.clear_oneshot_mods
                0x0000000000001eea       0x14 .build/obj_my65_default/quantum/action_util.o
                0x0000000000001eea                clear_oneshot_mods
 .text.send_keyboard_report
                0x0000000000001efe       0x82 .build/obj_my65_default/quantum/action_util.o
                0x0000000000001efe                send_keyboard_report
 .text.oneshot_layer_changed_user
                0x0000000000001f80        0x2 .build/obj_my65_default/quantum/action_util.o
                0x0000000000001f80                oneshot_layer_changed_user
 .text.oneshot_layer_changed_kb
                0x0000000000001f82        0x6 .build/obj_my65_default/quantum/action_util.o
                0x0000000000001f82                oneshot_layer_changed_kb
 .text.set_oneshot_layer
                0x0000000000001f88       0x30 .build/obj_my65_default/quantum/action_util.o
                0x0000000000001f88                set_oneshot_layer
 .text.reset_oneshot_layer
                0x0000000000001fb8        0xc .build/obj_my65_default/quantum/action_util.o
                0x0000000000001fb8                reset_oneshot_layer
 .text.clear_oneshot_layer_state
                0x0000000000001fc4       0x38 .build/obj_my65_default/quantum/action_util.o
                0x0000000000001fc4                clear_oneshot_layer_state
 .text.oneshot_set
                0x0000000000001ffc       0x50 .build/obj_my65_default/quantum/action_util.o
                0x0000000000001ffc                oneshot_set
 .text.oneshot_toggle
                0x000000000000204c       0x14 .build/obj_my65_default/quantum/action_util.o
                0x000000000000204c                oneshot_toggle
 .text.oneshot_enable
                0x0000000000002060        0x8 .build/obj_my65_default/quantum/action_util.o
                0x0000000000002060                oneshot_enable
 .text.oneshot_disable
                0x0000000000002068        0x8 .build/obj_my65_default/quantum/action_util.o
                0x0000000000002068                oneshot_disable
 .text.eeconfig_disable
                0x0000000000002070        0xe .build/obj_my65_default/quantum/eeconfig.o
                0x0000000000002070                eeconfig_disable
 .text.eeconfig_is_enabled
                0x000000000000207e       0x18 .build/obj_my65_default/quantum/eeconfig.o
                0x000000000000207e                eeconfig_is_enabled
 .text.eeconfig_read_debug
                0x0000000000002096        0xa .build/obj_my65_default/quantum/eeconfig.o
                0x0000000000002096                eeconfig_read_debug
 .text.eeconfig_read_default_layer
                0x00000000000020a0        0xa .build/obj_my65_default/quantum/eeconfig.o
                0x00000000000020a0                eeconfig_read_default_layer
 .text.eeconfig_read_keymap
                0x00000000000020aa       0x1c .build/obj_my65_default/quantum/eeconfig.o
                0x00000000000020aa                eeconfig_read_keymap
 .text.eeconfig_update_keymap
                0x00000000000020c6       0x1c .build/obj_my65_default/quantum/eeconfig.o
                0x00000000000020c6                eeconfig_update_keymap
 .text.eeconfig_update_kb
                0x00000000000020e2        0xe .build/obj_my65_default/quantum/eeconfig.o
                0x00000000000020e2                eeconfig_update_kb
 .text.eeconfig_update_user
                0x00000000000020f0        0xe .build/obj_my65_default/quantum/eeconfig.o
                0x00000000000020f0                eeconfig_update_user
 .text.eeconfig_init_user
                0x00000000000020fe        0xc .build/obj_my65_default/quantum/eeconfig.o
                0x00000000000020fe                eeconfig_init_user
 .text.eeconfig_init_kb
                0x000000000000210a       0x10 .build/obj_my65_default/quantum/eeconfig.o
                0x000000000000210a                eeconfig_init_kb
 .text.eeconfig_init_quantum
                0x000000000000211a       0xbe .build/obj_my65_default/quantum/eeconfig.o
                0x000000000000211a                eeconfig_init_quantum
 .text.eeconfig_init
                0x00000000000021d8        0x6 .build/obj_my65_default/quantum/eeconfig.o
                0x00000000000021d8                eeconfig_init
 .text.eeconfig_update_handedness
                0x00000000000021de        0xc .build/obj_my65_default/quantum/eeconfig.o
                0x00000000000021de                eeconfig_update_handedness
 .text.last_matrix_activity_trigger
                0x00000000000021ea       0x26 .build/obj_my65_default/quantum/keyboard.o
                0x00000000000021ea                last_matrix_activity_trigger
 .text.matrix_setup
                0x0000000000002210        0x2 .build/obj_my65_default/quantum/keyboard.o
                0x0000000000002210                matrix_setup
 .text.keyboard_pre_init_user
                0x0000000000002212        0x2 .build/obj_my65_default/quantum/keyboard.o
                0x0000000000002212                keyboard_pre_init_user
 .text.keyboard_pre_init_kb
                0x0000000000002214        0x6 .build/obj_my65_default/quantum/keyboard.o
                0x0000000000002214                keyboard_pre_init_kb
 .text.keyboard_post_init_user
                0x000000000000221a        0x2 .build/obj_my65_default/quantum/keyboard.o
                0x000000000000221a                keyboard_post_init_user
 .text.keyboard_post_init_kb
                0x000000000000221c        0x6 .build/obj_my65_default/quantum/keyboard.o
                0x000000000000221c                keyboard_post_init_kb
 .text.keyboard_setup
                0x0000000000002222       0x12 .build/obj_my65_default/quantum/keyboard.o
                0x0000000000002222                keyboard_setup
 .text.is_keyboard_master
                0x0000000000002234        0x4 .build/obj_my65_default/quantum/keyboard.o
                0x0000000000002234                is_keyboard_master
 .text.should_process_keypress
                0x0000000000002238        0x6 .build/obj_my65_default/quantum/keyboard.o
                0x0000000000002238                should_process_keypress
 .text.housekeeping_task_kb
                0x000000000000223e        0x2 .build/obj_my65_default/quantum/keyboard.o
                0x000000000000223e                housekeeping_task_kb
 .text.housekeeping_task_user
                0x0000000000002240        0x2 .build/obj_my65_default/quantum/keyboard.o
                0x0000000000002240                housekeeping_task_user
 .text.housekeeping_task
                0x0000000000002242        0xa .build/obj_my65_default/quantum/keyboard.o
                0x0000000000002242                housekeeping_task
 .text.quantum_init
                0x000000000000224c        0xa .build/obj_my65_default/quantum/keyboard.o
                0x000000000000224c                quantum_init
 .text.keyboard_init
                0x0000000000002256       0x16 .build/obj_my65_default/quantum/keyboard.o
                0x0000000000002256                keyboard_init
 .text.keyboard_task
                0x000000000000226c      0x118 .build/obj_my65_default/quantum/keyboard.o
                0x000000000000226c                keyboard_task
 .text.action_for_keycode
                0x0000000000002384      0x1e2 .build/obj_my65_default/quantum/keymap_common.o
                0x0000000000002384                action_for_keycode
 .text.action_for_key
                0x0000000000002566        0xa .build/obj_my65_default/quantum/keymap_common.o
                0x0000000000002566                action_for_key
 .text.keycode_config
                0x0000000000002570      0x144 .build/obj_my65_default/quantum/keycode_config.o
                0x0000000000002570                keycode_config
 .text.mod_config
                0x00000000000026b4       0x86 .build/obj_my65_default/quantum/keycode_config.o
                0x00000000000026b4                mod_config
 .text.bootmagic_lite_reset_eeprom
                0x000000000000273a        0x6 .build/obj_my65_default/quantum/bootmagic/bootmagic_lite.o
                0x000000000000273a                bootmagic_lite_reset_eeprom
 .text.bootmagic_lite
                0x0000000000002740       0x2e .build/obj_my65_default/quantum/bootmagic/bootmagic_lite.o
                0x0000000000002740                bootmagic_lite
 .text.bootmagic
                0x000000000000276e        0x6 .build/obj_my65_default/quantum/bootmagic/bootmagic_lite.o
                0x000000000000276e                bootmagic
 .text.magic    0x0000000000002774       0x36 .build/obj_my65_default/quantum/bootmagic/magic.o
                0x0000000000002774                magic
 .text.matrix_init_user
                0x00000000000027aa        0x2 .build/obj_my65_default/quantum/matrix_common.o
                0x00000000000027aa                matrix_init_user
 .text.matrix_init_kb
                0x00000000000027ac        0x6 .build/obj_my65_default/quantum/matrix_common.o
                0x00000000000027ac                matrix_init_kb
 .text.matrix_scan_user
                0x00000000000027b2        0x2 .build/obj_my65_default/quantum/matrix_common.o
                0x00000000000027b2                matrix_scan_user
 .text.matrix_scan_kb
                0x00000000000027b4        0x6 .build/obj_my65_default/quantum/matrix_common.o
                0x00000000000027b4                matrix_scan_kb
 .text.matrix_get_row
                0x00000000000027ba       0x12 .build/obj_my65_default/quantum/matrix_common.o
                0x00000000000027ba                matrix_get_row
 .text.matrix_print
                0x00000000000027cc       0x82 .build/obj_my65_default/quantum/matrix_common.o
                0x00000000000027cc                matrix_print
 .text.matrix_io_delay
                0x000000000000284e        0x8 .build/obj_my65_default/quantum/matrix_common.o
                0x000000000000284e                matrix_io_delay
 .text.matrix_output_select_delay
                0x0000000000002856        0x4 .build/obj_my65_default/quantum/matrix_common.o
                0x0000000000002856                matrix_output_select_delay
 .text.matrix_output_unselect_delay
                0x000000000000285a        0x6 .build/obj_my65_default/quantum/matrix_common.o
                0x000000000000285a                matrix_output_unselect_delay
 .text.setPinInputHigh_atomic
                0x0000000000002860       0x2e .build/obj_my65_default/quantum/matrix.o
 .text.matrix_init_pins
                0x000000000000288e       0x36 .build/obj_my65_default/quantum/matrix.o
                0x000000000000288e                matrix_init_pins
 .text.matrix_read_cols_on_row
                0x00000000000028c4       0xe0 .build/obj_my65_default/quantum/matrix.o
                0x00000000000028c4                matrix_read_cols_on_row
 .text.matrix_init
                0x00000000000029a4       0x2c .build/obj_my65_default/quantum/matrix.o
                0x00000000000029a4                matrix_init
 .text.matrix_scan
                0x00000000000029d0       0x76 .build/obj_my65_default/quantum/matrix.o
                0x00000000000029d0                matrix_scan
 .text.debounce_init
                0x0000000000002a46        0x2 .build/obj_my65_default/quantum/debounce/sym_defer_g.o
                0x0000000000002a46                debounce_init
 .text.debounce
                0x0000000000002a48       0x7e .build/obj_my65_default/quantum/debounce/sym_defer_g.o
                0x0000000000002a48                debounce
 .text.protocol_init
                0x0000000000002ac6        0xe .build/obj_my65_default/quantum/main.o
                0x0000000000002ac6                protocol_init
 .text.protocol_task
                0x0000000000002ad4        0xe .build/obj_my65_default/quantum/main.o
                0x0000000000002ad4                protocol_task
 .text.startup.main
                0x0000000000002ae2       0x1a .build/obj_my65_default/quantum/main.o
                0x0000000000002ae2                main
 .text.move_unit
                0x0000000000002afc       0x7c .build/obj_my65_default/quantum/mousekey.o
 .text.wheel_unit
                0x0000000000002b78       0x72 .build/obj_my65_default/quantum/mousekey.o
 .text.mousekey_on
                0x0000000000002bea       0xb4 .build/obj_my65_default/quantum/mousekey.o
                0x0000000000002bea                mousekey_on
 .text.mousekey_off
                0x0000000000002c9e       0xf2 .build/obj_my65_default/quantum/mousekey.o
                0x0000000000002c9e                mousekey_off
 .text.mousekey_send
                0x0000000000002d90      0x13c .build/obj_my65_default/quantum/mousekey.o
                0x0000000000002d90                mousekey_send
 .text.mousekey_clear
                0x0000000000002ecc       0x1c .build/obj_my65_default/quantum/mousekey.o
                0x0000000000002ecc                mousekey_clear
 .text.should_mousekey_report_send
                0x0000000000002ee8       0x28 .build/obj_my65_default/quantum/mousekey.o
                0x0000000000002ee8                should_mousekey_report_send
 .text.mousekey_task
                0x0000000000002f10      0x1f8 .build/obj_my65_default/quantum/mousekey.o
                0x0000000000002f10                mousekey_task
 .text.via_eeprom_is_valid
                0x0000000000003108       0x32 .build/obj_my65_default/quantum/via.o
                0x0000000000003108                via_eeprom_is_valid
 .text.via_eeprom_set_valid
                0x000000000000313a       0x32 .build/obj_my65_default/quantum/via.o
                0x000000000000313a                via_eeprom_set_valid
 .text.via_init_kb
                0x000000000000316c        0x2 .build/obj_my65_default/quantum/via.o
                0x000000000000316c                via_init_kb
 .text.via_get_layout_options
                0x000000000000316e       0x12 .build/obj_my65_default/quantum/via.o
                0x000000000000316e                via_get_layout_options
 .text.via_set_layout_options_kb
                0x0000000000003180        0x2 .build/obj_my65_default/quantum/via.o
                0x0000000000003180                via_set_layout_options_kb
 .text.via_set_layout_options
                0x0000000000003182       0x16 .build/obj_my65_default/quantum/via.o
                0x0000000000003182                via_set_layout_options
 .text.eeconfig_init_via
                0x0000000000003198       0x20 .build/obj_my65_default/quantum/via.o
                0x0000000000003198                eeconfig_init_via
 .text.via_init
                0x00000000000031b8       0x1a .build/obj_my65_default/quantum/via.o
                0x00000000000031b8                via_init
 .text.process_record_via
                0x00000000000031d2       0x70 .build/obj_my65_default/quantum/via.o
                0x00000000000031d2                process_record_via
 .text.raw_hid_receive_kb
                0x0000000000003242        0x8 .build/obj_my65_default/quantum/via.o
                0x0000000000003242                raw_hid_receive_kb
 .text.raw_hid_receive
                0x000000000000324a      0x166 .build/obj_my65_default/quantum/via.o
                0x000000000000324a                raw_hid_receive
 .text.process_magic
                0x00000000000033b0      0x2dc .build/obj_my65_default/quantum/process_keycode/process_magic.o
                0x00000000000033b0                process_magic
 .text.send_char
                0x000000000000368c       0xba .build/obj_my65_default/quantum/send_string/send_string.o
                0x000000000000368c                send_char
 .text.send_string_with_delay
                0x0000000000003746       0xcc .build/obj_my65_default/quantum/send_string/send_string.o
                0x0000000000003746                send_string_with_delay
 .text.mousekey_param_print
                0x0000000000003812       0x4e .build/obj_my65_default/quantum/command.o
 .text.mousekey_console
                0x0000000000003860      0x238 .build/obj_my65_default/quantum/command.o
 .text.switch_default_layer
                0x0000000000003a98       0x32 .build/obj_my65_default/quantum/command.o
 .text.command_common
                0x0000000000003aca      0x2d0 .build/obj_my65_default/quantum/command.o
 .text.command_extra
                0x0000000000003d9a        0x4 .build/obj_my65_default/quantum/command.o
                0x0000000000003d9a                command_extra
 .text.command_console_extra
                0x0000000000003d9e        0x6 .build/obj_my65_default/quantum/command.o
                0x0000000000003d9e                command_console_extra
 .text.command_proc
                0x0000000000003da4       0xa8 .build/obj_my65_default/quantum/command.o
                0x0000000000003da4                command_proc
 .text.dynamic_keymap_get_layer_count
                0x0000000000003e4c        0x4 .build/obj_my65_default/quantum/dynamic_keymap.o
                0x0000000000003e4c                dynamic_keymap_get_layer_count
 .text.dynamic_keymap_key_to_eeprom_address
                0x0000000000003e50       0x22 .build/obj_my65_default/quantum/dynamic_keymap.o
                0x0000000000003e50                dynamic_keymap_key_to_eeprom_address
 .text.dynamic_keymap_get_keycode
                0x0000000000003e72       0x44 .build/obj_my65_default/quantum/dynamic_keymap.o
                0x0000000000003e72                dynamic_keymap_get_keycode
 .text.dynamic_keymap_set_keycode
                0x0000000000003eb6       0x38 .build/obj_my65_default/quantum/dynamic_keymap.o
                0x0000000000003eb6                dynamic_keymap_set_keycode
 .text.dynamic_keymap_reset
                0x0000000000003eee       0x74 .build/obj_my65_default/quantum/dynamic_keymap.o
                0x0000000000003eee                dynamic_keymap_reset
 .text.dynamic_keymap_get_buffer
                0x0000000000003f62       0x48 .build/obj_my65_default/quantum/dynamic_keymap.o
                0x0000000000003f62                dynamic_keymap_get_buffer
 .text.dynamic_keymap_set_buffer
                0x0000000000003faa       0x48 .build/obj_my65_default/quantum/dynamic_keymap.o
                0x0000000000003faa                dynamic_keymap_set_buffer
 .text.keymap_key_to_keycode
                0x0000000000003ff2       0x1c .build/obj_my65_default/quantum/dynamic_keymap.o
                0x0000000000003ff2                keymap_key_to_keycode
 .text.dynamic_keymap_macro_get_count
                0x000000000000400e        0x4 .build/obj_my65_default/quantum/dynamic_keymap.o
                0x000000000000400e                dynamic_keymap_macro_get_count
 .text.dynamic_keymap_macro_get_buffer_size
                0x0000000000004012        0x6 .build/obj_my65_default/quantum/dynamic_keymap.o
                0x0000000000004012                dynamic_keymap_macro_get_buffer_size
 .text.dynamic_keymap_macro_get_buffer
                0x0000000000004018       0x48 .build/obj_my65_default/quantum/dynamic_keymap.o
                0x0000000000004018                dynamic_keymap_macro_get_buffer
 .text.dynamic_keymap_macro_set_buffer
                0x0000000000004060       0x48 .build/obj_my65_default/quantum/dynamic_keymap.o
                0x0000000000004060                dynamic_keymap_macro_set_buffer
 .text.dynamic_keymap_macro_reset
                0x00000000000040a8       0x20 .build/obj_my65_default/quantum/dynamic_keymap.o
                0x00000000000040a8                dynamic_keymap_macro_reset
 .text.dynamic_keymap_macro_send
                0x00000000000040c8       0x96 .build/obj_my65_default/quantum/dynamic_keymap.o
                0x00000000000040c8                dynamic_keymap_macro_send
 .text.process_grave_esc
                0x000000000000415e       0x54 .build/obj_my65_default/quantum/process_keycode/process_grave_esc.o
                0x000000000000415e                process_grave_esc
 .text.perform_space_cadet
                0x00000000000041b2       0xc8 .build/obj_my65_default/quantum/process_keycode/process_space_cadet.o
                0x00000000000041b2                perform_space_cadet
 .text.process_space_cadet
                0x000000000000427a       0xa4 .build/obj_my65_default/quantum/process_keycode/process_space_cadet.o
                0x000000000000427a                process_space_cadet
 .text.print_set_sendchar
                0x000000000000431e        0xa .build/obj_my65_default/platforms/avr/printf.o
                0x000000000000431e                print_set_sendchar
 .text.host_set_driver
                0x0000000000004328        0xa .build/obj_my65_default/protocol/host.o
                0x0000000000004328                host_set_driver
 .text.host_keyboard_leds
                0x0000000000004332       0x1a .build/obj_my65_default/protocol/host.o
                0x0000000000004332                host_keyboard_leds
 .text.host_keyboard_send
                0x000000000000434c       0x88 .build/obj_my65_default/protocol/host.o
                0x000000000000434c                host_keyboard_send
 .text.host_mouse_send
                0x00000000000043d4       0x1c .build/obj_my65_default/protocol/host.o
                0x00000000000043d4                host_mouse_send
 .text.host_system_send
                0x00000000000043f0       0x2c .build/obj_my65_default/protocol/host.o
                0x00000000000043f0                host_system_send
 .text.host_consumer_send
                0x000000000000441c       0x2c .build/obj_my65_default/protocol/host.o
                0x000000000000441c                host_consumer_send
 .text.has_anykey
                0x0000000000004448       0x24 .build/obj_my65_default/protocol/report.o
                0x0000000000004448                has_anykey
 .text.is_key_pressed
                0x000000000000446c       0x1e .build/obj_my65_default/protocol/report.o
                0x000000000000446c                is_key_pressed
 .text.add_key_byte
                0x000000000000448a       0x34 .build/obj_my65_default/protocol/report.o
                0x000000000000448a                add_key_byte
 .text.del_key_byte
                0x00000000000044be       0x1a .build/obj_my65_default/protocol/report.o
                0x00000000000044be                del_key_byte
 .text.add_key_to_report
                0x00000000000044d8        0x6 .build/obj_my65_default/protocol/report.o
                0x00000000000044d8                add_key_to_report
 .text.del_key_from_report
                0x00000000000044de        0x6 .build/obj_my65_default/protocol/report.o
                0x00000000000044de                del_key_from_report
 .text.clear_keys_from_report
                0x00000000000044e4        0xe .build/obj_my65_default/protocol/report.o
                0x00000000000044e4                clear_keys_from_report
 .text.has_mouse_report_changed
                0x00000000000044f2       0x14 .build/obj_my65_default/protocol/report.o
                0x00000000000044f2                has_mouse_report_changed
 .text.notify_usb_device_state_change_user
                0x0000000000004506        0x2 .build/obj_my65_default/protocol/usb_device_state.o
                0x0000000000004506                notify_usb_device_state_change_user
 .text.notify_usb_device_state_change_kb
                0x0000000000004508        0x6 .build/obj_my65_default/protocol/usb_device_state.o
                0x0000000000004508                notify_usb_device_state_change_kb
 .text.usb_device_state_set_configuration
                0x000000000000450e       0x14 .build/obj_my65_default/protocol/usb_device_state.o
                0x000000000000450e                usb_device_state_set_configuration
 .text.usb_device_state_set_suspend
                0x0000000000004522        0xc .build/obj_my65_default/protocol/usb_device_state.o
                0x0000000000004522                usb_device_state_set_suspend
 .text.usb_device_state_set_resume
                0x000000000000452e        0x6 .build/obj_my65_default/protocol/usb_device_state.o
                0x000000000000452e                usb_device_state_set_resume
 .text.usb_device_state_set_reset
                0x0000000000004534        0xc .build/obj_my65_default/protocol/usb_device_state.o
                0x0000000000004534                usb_device_state_set_reset
 .text.usb_device_state_init
                0x0000000000004540        0x6 .build/obj_my65_default/protocol/usb_device_state.o
                0x0000000000004540                usb_device_state_init
 .text.suspend_wakeup_init_user
                0x0000000000004546        0x2 .build/obj_my65_default/platforms/suspend.o
                0x0000000000004546                suspend_wakeup_init_user
 .text.suspend_power_down_user
                0x0000000000004548        0x2 .build/obj_my65_default/platforms/suspend.o
                0x0000000000004548                suspend_power_down_user
 .text.suspend_power_down_kb
                0x000000000000454a        0x6 .build/obj_my65_default/platforms/suspend.o
                0x000000000000454a                suspend_power_down_kb
 .text.matrix_power_up
                0x0000000000004550        0x2 .build/obj_my65_default/platforms/suspend.o
                0x0000000000004550                matrix_power_up
 .text.matrix_power_down
                0x0000000000004552        0x2 .build/obj_my65_default/platforms/suspend.o
                0x0000000000004552                matrix_power_down
 .text.suspend_wakeup_init_kb
                0x0000000000004554        0x6 .build/obj_my65_default/platforms/suspend.o
                0x0000000000004554                suspend_wakeup_init_kb
 .text.suspend_wakeup_condition
                0x000000000000455a       0x2a .build/obj_my65_default/platforms/suspend.o
                0x000000000000455a                suspend_wakeup_condition
 .text.platform_setup
                0x0000000000004584        0xe .build/obj_my65_default/platforms/avr/platform.o
                0x0000000000004584                platform_setup
 .text.__vector_12
                0x0000000000004592       0x4e .build/obj_my65_default/platforms/avr/suspend.o
                0x0000000000004592                __vector_12
 .text.suspend_power_down
                0x00000000000045e0       0x56 .build/obj_my65_default/platforms/avr/suspend.o
                0x00000000000045e0                suspend_power_down
 .text.suspend_wakeup_init
                0x0000000000004636        0xa .build/obj_my65_default/platforms/avr/suspend.o
                0x0000000000004636                suspend_wakeup_init
 .text.timer_init
                0x0000000000004640       0x12 .build/obj_my65_default/platforms/avr/timer.o
                0x0000000000004640                timer_init
 .text.timer_read
                0x0000000000004652       0x18 .build/obj_my65_default/platforms/avr/timer.o
                0x0000000000004652                timer_read
 .text.timer_read32
                0x000000000000466a       0x18 .build/obj_my65_default/platforms/avr/timer.o
                0x000000000000466a                timer_read32
 .text.timer_elapsed
                0x0000000000004682       0x1e .build/obj_my65_default/platforms/avr/timer.o
                0x0000000000004682                timer_elapsed
 .text.__vector_21
                0x00000000000046a0       0x48 .build/obj_my65_default/platforms/avr/timer.o
                0x00000000000046a0                __vector_21
 .text.bootloader_jump
                0x00000000000046e8       0x48 .build/obj_my65_default/platforms/avr/bootloaders/dfu.o
                0x00000000000046e8                bootloader_jump
 .text.mcu_reset
                0x0000000000004730       0x16 .build/obj_my65_default/platforms/avr/bootloaders/dfu.o
                0x0000000000004730                mcu_reset
 .text.keyboard_leds
                0x0000000000004746        0x6 .build/obj_my65_default/lufa.o
 .text.send_programmable_button
                0x000000000000474c        0x2 .build/obj_my65_default/lufa.o
 .text.send_mouse
                0x000000000000474e       0x42 .build/obj_my65_default/lufa.o
 .text.send_keyboard
                0x0000000000004790       0x5a .build/obj_my65_default/lufa.o
 .text.send_extra
                0x00000000000047ea       0x54 .build/obj_my65_default/lufa.o
 .text.send_consumer
                0x000000000000483e        0xa .build/obj_my65_default/lufa.o
 .text.send_system
                0x0000000000004848        0xa .build/obj_my65_default/lufa.o
 .text.raw_hid_send
                0x0000000000004852       0x54 .build/obj_my65_default/lufa.o
                0x0000000000004852                raw_hid_send
 .text.EVENT_USB_Device_Connect
                0x00000000000048a6       0x24 .build/obj_my65_default/lufa.o
                0x00000000000048a6                EVENT_USB_Device_Connect
 .text.EVENT_USB_Device_Disconnect
                0x00000000000048ca        0xe .build/obj_my65_default/lufa.o
                0x00000000000048ca                EVENT_USB_Device_Disconnect
 .text.EVENT_USB_Device_Reset
                0x00000000000048d8        0xe .build/obj_my65_default/lufa.o
                0x00000000000048d8                EVENT_USB_Device_Reset
 .text.EVENT_USB_Device_Suspend
                0x00000000000048e6       0x1a .build/obj_my65_default/lufa.o
                0x00000000000048e6                EVENT_USB_Device_Suspend
 .text.EVENT_USB_Device_WakeUp
                0x0000000000004900       0x1e .build/obj_my65_default/lufa.o
                0x0000000000004900                EVENT_USB_Device_WakeUp
 .text.EVENT_USB_Device_StartOfFrame
                0x000000000000491e       0x82 .build/obj_my65_default/lufa.o
                0x000000000000491e                EVENT_USB_Device_StartOfFrame
 .text.EVENT_USB_Device_ConfigurationChanged
                0x00000000000049a0       0x48 .build/obj_my65_default/lufa.o
                0x00000000000049a0                EVENT_USB_Device_ConfigurationChanged
 .text.EVENT_USB_Device_ControlRequest
                0x00000000000049e8      0x178 .build/obj_my65_default/lufa.o
                0x00000000000049e8                EVENT_USB_Device_ControlRequest
 .text.sendchar
                0x0000000000004b60       0xc4 .build/obj_my65_default/lufa.o
                0x0000000000004b60                sendchar
 .text.protocol_setup
                0x0000000000004c24       0x34 .build/obj_my65_default/lufa.o
                0x0000000000004c24                protocol_setup
 .text.protocol_pre_init
                0x0000000000004c58       0x1a .build/obj_my65_default/lufa.o
                0x0000000000004c58                protocol_pre_init
 .text.protocol_post_init
                0x0000000000004c72        0xa .build/obj_my65_default/lufa.o
                0x0000000000004c72                protocol_post_init
 .text.protocol_pre_task
                0x0000000000004c7c       0x3c .build/obj_my65_default/lufa.o
                0x0000000000004c7c                protocol_pre_task
 .text.protocol_post_task
                0x0000000000004cb8       0x5e .build/obj_my65_default/lufa.o
                0x0000000000004cb8                protocol_post_task
 .text.CALLBACK_USB_GetDescriptor
                0x0000000000004d16        0x6 .build/obj_my65_default/lufa.o
                0x0000000000004d16                CALLBACK_USB_GetDescriptor
 .text.get_usb_descriptor
                0x0000000000004d1c       0xae .build/obj_my65_default/usb_descriptor.o
                0x0000000000004d1c                get_usb_descriptor
 .text.USB_Device_SendRemoteWakeup
                0x0000000000004dca       0x2c .build/obj_my65_default/lib/lufa/LUFA/Drivers/USB/Core/AVR8/Device_AVR8.o
                0x0000000000004dca                USB_Device_SendRemoteWakeup
 .text.Endpoint_Write_Stream_LE
                0x0000000000004df6       0x9e .build/obj_my65_default/lib/lufa/LUFA/Drivers/USB/Core/AVR8/EndpointStream_AVR8.o
                0x0000000000004df6                Endpoint_Write_Stream_LE
 .text.Endpoint_Read_Stream_LE
                0x0000000000004e94       0x9e .build/obj_my65_default/lib/lufa/LUFA/Drivers/USB/Core/AVR8/EndpointStream_AVR8.o
                0x0000000000004e94                Endpoint_Read_Stream_LE
 .text.Endpoint_Write_Control_Stream_LE
                0x0000000000004f32       0xbc .build/obj_my65_default/lib/lufa/LUFA/Drivers/USB/Core/AVR8/EndpointStream_AVR8.o
                0x0000000000004f32                Endpoint_Write_Control_Stream_LE
 .text.Endpoint_Write_Control_PStream_LE
                0x0000000000004fee       0xbe .build/obj_my65_default/lib/lufa/LUFA/Drivers/USB/Core/AVR8/EndpointStream_AVR8.o
                0x0000000000004fee                Endpoint_Write_Control_PStream_LE
 .text.Endpoint_ConfigureEndpoint_Prv
                0x00000000000050ac       0x68 .build/obj_my65_default/lib/lufa/LUFA/Drivers/USB/Core/AVR8/Endpoint_AVR8.o
                0x00000000000050ac                Endpoint_ConfigureEndpoint_Prv
 .text.Endpoint_ClearStatusStage
                0x0000000000005114       0x3e .build/obj_my65_default/lib/lufa/LUFA/Drivers/USB/Core/AVR8/Endpoint_AVR8.o
                0x0000000000005114                Endpoint_ClearStatusStage
 .text.Endpoint_WaitUntilReady
                0x0000000000005152       0x62 .build/obj_my65_default/lib/lufa/LUFA/Drivers/USB/Core/AVR8/Endpoint_AVR8.o
                0x0000000000005152                Endpoint_WaitUntilReady
 .text.USB_Disable
                0x00000000000051b4       0x34 .build/obj_my65_default/lib/lufa/LUFA/Drivers/USB/Core/AVR8/USBController_AVR8.o
                0x00000000000051b4                USB_Disable
 .text.USB_ResetInterface
                0x00000000000051e8       0x86 .build/obj_my65_default/lib/lufa/LUFA/Drivers/USB/Core/AVR8/USBController_AVR8.o
                0x00000000000051e8                USB_ResetInterface
 .text.USB_Init
                0x000000000000526e       0x24 .build/obj_my65_default/lib/lufa/LUFA/Drivers/USB/Core/AVR8/USBController_AVR8.o
                0x000000000000526e                USB_Init
 .text.USB_INT_DisableAllInterrupts
                0x0000000000005292       0x10 .build/obj_my65_default/lib/lufa/LUFA/Drivers/USB/Core/AVR8/USBInterrupt_AVR8.o
                0x0000000000005292                USB_INT_DisableAllInterrupts
 .text.USB_INT_ClearAllInterrupts
                0x00000000000052a2        0xa .build/obj_my65_default/lib/lufa/LUFA/Drivers/USB/Core/AVR8/USBInterrupt_AVR8.o
                0x00000000000052a2                USB_INT_ClearAllInterrupts
 .text.__vector_10
                0x00000000000052ac      0x1a8 .build/obj_my65_default/lib/lufa/LUFA/Drivers/USB/Core/AVR8/USBInterrupt_AVR8.o
                0x00000000000052ac                __vector_10
 .text.__vector_11
                0x0000000000005454       0x88 .build/obj_my65_default/lib/lufa/LUFA/Drivers/USB/Core/AVR8/USBInterrupt_AVR8.o
                0x0000000000005454                __vector_11
 .text.USB_Device_ProcessControlRequest
                0x00000000000054dc      0x28e .build/obj_my65_default/lib/lufa/LUFA/Drivers/USB/Core/DeviceStandardReq.o
                0x00000000000054dc                USB_Device_ProcessControlRequest
 .text.USB_USBTask
                0x000000000000576a       0x36 .build/obj_my65_default/lib/lufa/LUFA/Drivers/USB/Core/USBTask.o
                0x000000000000576a                USB_USBTask
 .text.libgcc.div
                0x00000000000057a0       0x18 c:/qmk_msys/mingw64/bin/../lib/gcc/avr/8.5.0/avr5\libgcc.a(_udivmodqi4.o)
                0x00000000000057a0                __udivmodqi4
 .text.libgcc.div
                0x00000000000057b8       0x28 c:/qmk_msys/mingw64/bin/../lib/gcc/avr/8.5.0/avr5\libgcc.a(_divmodhi4.o)
                0x00000000000057b8                _div
                0x00000000000057b8                __divmodhi4
 .text.libgcc   0x00000000000057e0        0xc c:/qmk_msys/mingw64/bin/../lib/gcc/avr/8.5.0/avr5\libgcc.a(_tablejump2.o)
                0x00000000000057e0                __tablejump2__
 .text.libgcc.builtins
                0x00000000000057ec        0xe c:/qmk_msys/mingw64/bin/../lib/gcc/avr/8.5.0/avr5\libgcc.a(_bswapsi2.o)
                0x00000000000057ec                __bswapsi2
 .text.libgcc.prologue
                0x00000000000057fa       0x38 c:/qmk_msys/mingw64/bin/../lib/gcc/avr/8.5.0/avr5\libgcc.a(_prologue.o)
                0x00000000000057fa                __prologue_saves__
 .text.libgcc.prologue
                0x0000000000005832       0x36 c:/qmk_msys/mingw64/bin/../lib/gcc/avr/8.5.0/avr5\libgcc.a(_epilogue.o)
                0x0000000000005832                __epilogue_restores__
 .text.libgcc.div
                0x0000000000005868       0x28 c:/qmk_msys/mingw64/bin/../lib/gcc/avr/8.5.0/avr5\libgcc.a(_udivmodhi4.o)
                0x0000000000005868                __udivmodhi4
 .text.avr-libc
                0x0000000000005890       0x1a c:/qmk_msys/mingw64/bin/../lib/gcc/avr/8.5.0/../../../../avr/lib/avr5\libc.a(memcmp.o)
                0x0000000000005890                memcmp
 .text.avr-libc
                0x00000000000058aa       0x12 c:/qmk_msys/mingw64/bin/../lib/gcc/avr/8.5.0/../../../../avr/lib/avr5\libc.a(memcpy.o)
                0x00000000000058aa                memcpy
 .text.avr-libc
                0x00000000000058bc       0x10 c:/qmk_msys/mingw64/bin/../lib/gcc/avr/8.5.0/../../../../avr/lib/avr5\libatmega32u4.a(eerd_byte.o)
                0x00000000000058bc                eeprom_read_byte
 .text.avr-libc
                0x00000000000058cc        0xc c:/qmk_msys/mingw64/bin/../lib/gcc/avr/8.5.0/../../../../avr/lib/avr5\libatmega32u4.a(eerd_word.o)
                0x00000000000058cc                eeprom_read_word
 .text.avr-libc
                0x00000000000058d8       0x24 c:/qmk_msys/mingw64/bin/../lib/gcc/avr/8.5.0/../../../../avr/lib/avr5\libatmega32u4.a(eeupd_byte.o)
                0x00000000000058d8                eeprom_update_byte
                0x00000000000058da                eeprom_update_r18
 .text.avr-libc
                0x00000000000058fc       0x18 c:/qmk_msys/mingw64/bin/../lib/gcc/avr/8.5.0/../../../../avr/lib/avr5\libatmega32u4.a(eeupd_dword.o)
                0x00000000000058fc                eeprom_update_float
                0x00000000000058fc                eeprom_update_dword
 .text.avr-libc
                0x0000000000005914        0xc c:/qmk_msys/mingw64/bin/../lib/gcc/avr/8.5.0/../../../../avr/lib/avr5\libatmega32u4.a(eeupd_word.o)
                0x0000000000005914                eeprom_update_word
 .text.avr-libc
                0x0000000000005920       0x20 c:/qmk_msys/mingw64/bin/../lib/gcc/avr/8.5.0/../../../../avr/lib/avr5\libatmega32u4.a(eerd_block.o)
                0x0000000000005920                eeprom_read_block
                0x0000000000005924                eeprom_read_blraw
                0x0000000000005940                . = ALIGN (0x2)
 *(.fini9)
 .fini9         0x0000000000005940        0x0 c:/qmk_msys/mingw64/bin/../lib/gcc/avr/8.5.0/avr5\libgcc.a(_exit.o)
                0x0000000000005940                _exit
                0x0000000000005940                exit
 *(.fini9)
 *(.fini8)
 *(.fini8)
 *(.fini7)
 *(.fini7)
 *(.fini6)
 *(.fini6)
 *(.fini5)
 *(.fini5)
 *(.fini4)
 *(.fini4)
 *(.fini3)
 *(.fini3)
 *(.fini2)
 *(.fini2)
 *(.fini1)
 *(.fini1)
 *(.fini0)
 .fini0         0x0000000000005940        0x4 c:/qmk_msys/mingw64/bin/../lib/gcc/avr/8.5.0/avr5\libgcc.a(_exit.o)
 *(.fini0)
 *(.hightext)
 *(.hightext*)
 *(.progmemx.*)
                0x0000000000005944                . = ALIGN (0x2)
 *(.jumptables)
 *(.jumptables*)
 .jumptables.gcc.process_action
                0x0000000000005944       0x18 .build/obj_my65_default/quantum/action.o
 .jumptables.gcc.raw_hid_receive
                0x000000000000595c       0x26 .build/obj_my65_default/quantum/via.o
 .jumptables.gcc.USB_Device_ProcessControlRequest
                0x0000000000005982       0x14 .build/obj_my65_default/lib/lufa/LUFA/Drivers/USB/Core/DeviceStandardReq.o
                0x0000000000005996                _etext = .

.data           0x0000000000800100      0x1b4 load address 0x0000000000005996
                0x0000000000800100                PROVIDE (__data_start = .)
 *(.data)
 *(.data*)
 .data.keyboard_report
                0x0000000000800100        0x2 .build/obj_my65_default/quantum/action_util.o
                0x0000000000800100                keyboard_report
 .data.mk_wheel_time_to_max
                0x0000000000800102        0x1 .build/obj_my65_default/quantum/mousekey.o
                0x0000000000800102                mk_wheel_time_to_max
 .data.mk_wheel_max_speed
                0x0000000000800103        0x1 .build/obj_my65_default/quantum/mousekey.o
                0x0000000000800103                mk_wheel_max_speed
 .data.mk_wheel_interval
                0x0000000000800104        0x1 .build/obj_my65_default/quantum/mousekey.o
                0x0000000000800104                mk_wheel_interval
 .data.mk_wheel_delay
                0x0000000000800105        0x1 .build/obj_my65_default/quantum/mousekey.o
                0x0000000000800105                mk_wheel_delay
 .data.mk_time_to_max
                0x0000000000800106        0x1 .build/obj_my65_default/quantum/mousekey.o
                0x0000000000800106                mk_time_to_max
 .data.mk_max_speed
                0x0000000000800107        0x1 .build/obj_my65_default/quantum/mousekey.o
                0x0000000000800107                mk_max_speed
 .data.mk_interval
                0x0000000000800108        0x1 .build/obj_my65_default/quantum/mousekey.o
                0x0000000000800108                mk_interval
 .data.mk_delay
                0x0000000000800109        0x1 .build/obj_my65_default/quantum/mousekey.o
                0x0000000000800109                mk_delay
 .data.lufa_driver
                0x000000000080010a        0xc .build/obj_my65_default/lufa.o
                0x000000000080010a                lufa_driver
 .data.keyboard_protocol
                0x0000000000800116        0x1 .build/obj_my65_default/lufa.o
                0x0000000000800116                keyboard_protocol
 *(.gnu.linkonce.d*)
 *(.rodata)
 *(.rodata*)
 .rodata.CSWTCH.12
                0x0000000000800117       0x2e .build/obj_my65_default/quantum/action.o
 .rodata.CSWTCH.11
                0x0000000000800145        0x3 .build/obj_my65_default/quantum/action.o
 .rodata.CSWTCH.1
                0x0000000000800148       0x2e .build/obj_my65_default/quantum/keymap_common.o
 .rodata.CSWTCH.0
                0x0000000000800176        0x3 .build/obj_my65_default/quantum/keymap_common.o
 .rodata.col_pins
                0x0000000000800179       0x10 .build/obj_my65_default/quantum/matrix.o
 .rodata.row_pins
                0x0000000000800189        0x6 .build/obj_my65_default/quantum/matrix.o
 .rodata.mousekey_console.str1.1
                0x000000000080018f       0x5d .build/obj_my65_default/quantum/command.o
 .rodata.command_common.str1.1
                0x00000000008001ec       0xb4 .build/obj_my65_default/quantum/command.o
 .rodata.CSWTCH.2
                0x00000000008002a0        0x4 .build/obj_my65_default/usb_descriptor.o
 .rodata.CSWTCH.1
                0x00000000008002a4        0x8 .build/obj_my65_default/usb_descriptor.o
 .rodata.CSWTCH.0
                0x00000000008002ac        0x8 .build/obj_my65_default/usb_descriptor.o
 *(.gnu.linkonce.r*)
                0x00000000008002b4                . = ALIGN (0x2)
                0x00000000008002b4                _edata = .
                0x00000000008002b4                PROVIDE (__data_end = .)

.bss            0x00000000008002b4       0xee
                0x00000000008002b4                PROVIDE (__bss_start = .)
 *(.bss)
 .bss           0x00000000008002b4        0x2 .build/obj_my65_default/platforms/avr/xprintf.o
                0x00000000008002b4                xfunc_out
 *(.bss*)
 .bss.last_led_status.2270
                0x00000000008002b6        0x1 .build/obj_my65_default/quantum/led.o
 .bss.last_led_modification_time
                0x00000000008002b7        0x4 .build/obj_my65_default/quantum/led.o
 .bss.disable_action_cache
                0x00000000008002bb        0x1 .build/obj_my65_default/quantum/action.o
                0x00000000008002bb                disable_action_cache
 .bss.source_layers_cache
                0x00000000008002bc       0x24 .build/obj_my65_default/quantum/action_layer.o
                0x00000000008002bc                source_layers_cache
 .bss.layer_state
                0x00000000008002e0        0x1 .build/obj_my65_default/quantum/action_layer.o
                0x00000000008002e0                layer_state
 .bss.default_layer_state
                0x00000000008002e1        0x1 .build/obj_my65_default/quantum/action_layer.o
                0x00000000008002e1                default_layer_state
 .bss.waiting_buffer_tail
                0x00000000008002e2        0x1 .build/obj_my65_default/quantum/action_tapping.o
 .bss.waiting_buffer_head
                0x00000000008002e3        0x1 .build/obj_my65_default/quantum/action_tapping.o
 .bss.waiting_buffer
                0x00000000008002e4       0x30 .build/obj_my65_default/quantum/action_tapping.o
 .bss.tapping_key
                0x0000000000800314        0x6 .build/obj_my65_default/quantum/action_tapping.o
 .bss.last_report.2883
                0x000000000080031a        0x8 .build/obj_my65_default/quantum/action_util.o
 .bss.oneshot_layer_data
                0x0000000000800322        0x1 .build/obj_my65_default/quantum/action_util.o
 .bss.oneshot_mods
                0x0000000000800323        0x1 .build/obj_my65_default/quantum/action_util.o
 .bss.__compound_literal.0
                0x0000000000800324        0x8 .build/obj_my65_default/quantum/action_util.o
 .bss.weak_mods
                0x000000000080032c        0x1 .build/obj_my65_default/quantum/action_util.o
 .bss.real_mods
                0x000000000080032d        0x1 .build/obj_my65_default/quantum/action_util.o
 .bss.last_tick.4100
                0x000000000080032e        0x2 .build/obj_my65_default/quantum/keyboard.o
 .bss.matrix_previous.4107
                0x0000000000800330        0xc .build/obj_my65_default/quantum/keyboard.o
 .bss.last_matrix_modification_time
                0x000000000080033c        0x4 .build/obj_my65_default/quantum/keyboard.o
 .bss.last_input_modification_time
                0x0000000000800340        0x4 .build/obj_my65_default/quantum/keyboard.o
 .bss.debug_config
                0x0000000000800344        0x1 .build/obj_my65_default/quantum/logging/debug.o
                0x0000000000800344                debug_config
 .bss.debouncing_time
                0x0000000000800345        0x2 .build/obj_my65_default/quantum/debounce/sym_defer_g.o
 .bss.debouncing
                0x0000000000800347        0x1 .build/obj_my65_default/quantum/debounce/sym_defer_g.o
 .bss.last_timer_w
                0x0000000000800348        0x2 .build/obj_my65_default/quantum/mousekey.o
 .bss.last_timer_c
                0x000000000080034a        0x2 .build/obj_my65_default/quantum/mousekey.o
 .bss.mousekey_wheel_repeat
                0x000000000080034c        0x1 .build/obj_my65_default/quantum/mousekey.o
 .bss.mousekey_repeat
                0x000000000080034d        0x1 .build/obj_my65_default/quantum/mousekey.o
 .bss.mousekey_accel
                0x000000000080034e        0x1 .build/obj_my65_default/quantum/mousekey.o
 .bss.mouse_report
                0x000000000080034f        0x6 .build/obj_my65_default/quantum/mousekey.o
 .bss.desc.4161
                0x0000000000800355        0x2 .build/obj_my65_default/quantum/command.o
 .bss.pp.4160   0x0000000000800357        0x2 .build/obj_my65_default/quantum/command.o
 .bss.param.4159
                0x0000000000800359        0x1 .build/obj_my65_default/quantum/command.o
 .bss.command_state
                0x000000000080035a        0x1 .build/obj_my65_default/quantum/command.o
                0x000000000080035a                command_state
 .bss.grave_esc_was_shifted
                0x000000000080035b        0x1 .build/obj_my65_default/quantum/process_keycode/process_grave_esc.o
 .bss.sc_timer  0x000000000080035c        0x2 .build/obj_my65_default/quantum/process_keycode/process_space_cadet.o
 .bss.sc_last   0x000000000080035e        0x1 .build/obj_my65_default/quantum/process_keycode/process_space_cadet.o
 .bss.last_consumer_report
                0x000000000080035f        0x2 .build/obj_my65_default/protocol/host.o
 .bss.last_system_report
                0x0000000000800361        0x2 .build/obj_my65_default/protocol/host.o
 .bss.driver    0x0000000000800363        0x2 .build/obj_my65_default/protocol/host.o
 .bss.usb_device_state
                0x0000000000800365        0x1 .build/obj_my65_default/protocol/usb_device_state.o
                0x0000000000800365                usb_device_state
 .bss.wdt_timeout
                0x0000000000800366        0x1 .build/obj_my65_default/platforms/avr/suspend.o
 .bss.timed_out.6716
                0x0000000000800367        0x1 .build/obj_my65_default/lufa.o
 .bss.count.6639
                0x0000000000800368        0x1 .build/obj_my65_default/lufa.o
 .bss.r.6702    0x0000000000800369        0x3 .build/obj_my65_default/lufa.o
 .bss.console_flush
                0x000000000080036c        0x1 .build/obj_my65_default/lufa.o
 .bss.keyboard_report_sent
                0x000000000080036d        0x8 .build/obj_my65_default/lufa.o
 .bss.keyboard_led_state
                0x0000000000800375        0x1 .build/obj_my65_default/lufa.o
 .bss.keyboard_idle
                0x0000000000800376        0x1 .build/obj_my65_default/lufa.o
                0x0000000000800376                keyboard_idle
 *(COMMON)
 COMMON         0x0000000000800377        0x2 .build/obj_my65_default/quantum/bootmagic/magic.o
                0x0000000000800377                keymap_config
 COMMON         0x0000000000800379       0x18 .build/obj_my65_default/quantum/matrix_common.o
                0x0000000000800379                raw_matrix
                0x0000000000800385                matrix
 COMMON         0x0000000000800391        0x4 .build/obj_my65_default/platforms/avr/timer.o
                0x0000000000800391                timer_count
 COMMON         0x0000000000800395        0x3 .build/obj_my65_default/lib/lufa/LUFA/Drivers/USB/Core/DeviceStandardReq.o
                0x0000000000800395                USB_Device_ConfigurationNumber
                0x0000000000800396                USB_Device_CurrentlySelfPowered
                0x0000000000800397                USB_Device_RemoteWakeupEnabled
 COMMON         0x0000000000800398        0xa .build/obj_my65_default/lib/lufa/LUFA/Drivers/USB/Core/USBTask.o
                0x0000000000800398                USB_IsInitialized
                0x0000000000800399                USB_DeviceState
                0x000000000080039a                USB_ControlRequest
                0x00000000008003a2                PROVIDE (__bss_end = .)
                0x0000000000005996                __data_load_start = LOADADDR (.data)
                0x0000000000005b4a                __data_load_end = (__data_load_start + SIZEOF (.data))

.noinit         0x00000000008003a2        0x4
                [!provide]                        PROVIDE (__noinit_start = .)
 *(.noinit .noinit.* .gnu.linkonce.n.*)
 .noinit        0x00000000008003a2        0x4 .build/obj_my65_default/platforms/avr/bootloaders/dfu.o
                0x00000000008003a2                reset_key
                [!provide]                        PROVIDE (__noinit_end = .)
                0x00000000008003a6                _end = .
                [!provide]                        PROVIDE (__heap_start = .)

.eeprom         0x0000000000810000        0x0
 *(.eeprom*)
                0x0000000000810000                __eeprom_end = .

.fuse
 *(.fuse)
 *(.lfuse)
 *(.hfuse)
 *(.efuse)

.lock
 *(.lock*)

.signature
 *(.signature*)

.stab
 *(.stab)

.stabstr
 *(.stabstr)

.stab.excl
 *(.stab.excl)

.stab.exclstr
 *(.stab.exclstr)

.stab.index
 *(.stab.index)

.stab.indexstr
 *(.stab.indexstr)

.comment        0x0000000000000000       0x11
 *(.comment)
 .comment       0x0000000000000000       0x11 .build/obj_my65_default/quantum/keymap_introspection.o
                                         0x12 (size before relaxing)
 .comment       0x0000000000000011       0x12 .build/obj_my65_default/quantum/quantum.o
 .comment       0x0000000000000011       0x12 .build/obj_my65_default/quantum/bitwise.o
 .comment       0x0000000000000011       0x12 .build/obj_my65_default/quantum/led.o
 .comment       0x0000000000000011       0x12 .build/obj_my65_default/quantum/action.o
 .comment       0x0000000000000011       0x12 .build/obj_my65_default/quantum/action_layer.o
 .comment       0x0000000000000011       0x12 .build/obj_my65_default/quantum/action_tapping.o
 .comment       0x0000000000000011       0x12 .build/obj_my65_default/quantum/action_util.o
 .comment       0x0000000000000011       0x12 .build/obj_my65_default/quantum/eeconfig.o
 .comment       0x0000000000000011       0x12 .build/obj_my65_default/quantum/keyboard.o
 .comment       0x0000000000000011       0x12 .build/obj_my65_default/quantum/keymap_common.o
 .comment       0x0000000000000011       0x12 .build/obj_my65_default/quantum/keycode_config.o
 .comment       0x0000000000000011       0x12 .build/obj_my65_default/quantum/logging/debug.o
 .comment       0x0000000000000011       0x12 .build/obj_my65_default/quantum/bootmagic/bootmagic_lite.o
 .comment       0x0000000000000011       0x12 .build/obj_my65_default/quantum/bootmagic/magic.o
 .comment       0x0000000000000011       0x12 .build/obj_my65_default/quantum/matrix_common.o
 .comment       0x0000000000000011       0x12 .build/obj_my65_default/quantum/matrix.o
 .comment       0x0000000000000011       0x12 .build/obj_my65_default/quantum/debounce/sym_defer_g.o
 .comment       0x0000000000000011       0x12 .build/obj_my65_default/quantum/main.o
 .comment       0x0000000000000011       0x12 .build/obj_my65_default/quantum/mousekey.o
 .comment       0x0000000000000011       0x12 .build/obj_my65_default/quantum/via.o
 .comment       0x0000000000000011       0x12 .build/obj_my65_default/quantum/process_keycode/process_magic.o
 .comment       0x0000000000000011       0x12 .build/obj_my65_default/quantum/send_string/send_string.o
 .comment       0x0000000000000011       0x12 .build/obj_my65_default/quantum/command.o
 .comment       0x0000000000000011       0x12 .build/obj_my65_default/quantum/dynamic_keymap.o
 .comment       0x0000000000000011       0x12 .build/obj_my65_default/quantum/process_keycode/process_grave_esc.o
 .comment       0x0000000000000011       0x12 .build/obj_my65_default/quantum/process_keycode/process_space_cadet.o
 .comment       0x0000000000000011       0x12 .build/obj_my65_default/platforms/avr/printf.o
 .comment       0x0000000000000011       0x12 .build/obj_my65_default/protocol/host.o
 .comment       0x0000000000000011       0x12 .build/obj_my65_default/protocol/report.o
 .comment       0x0000000000000011       0x12 .build/obj_my65_default/protocol/usb_device_state.o
 .comment       0x0000000000000011       0x12 .build/obj_my65_default/platforms/suspend.o
 .comment       0x0000000000000011       0x12 .build/obj_my65_default/platforms/avr/platform.o
 .comment       0x0000000000000011       0x12 .build/obj_my65_default/platforms/avr/suspend.o
 .comment       0x0000000000000011       0x12 .build/obj_my65_default/platforms/avr/timer.o
 .comment       0x0000000000000011       0x12 .build/obj_my65_default/platforms/avr/bootloaders/dfu.o
 .comment       0x0000000000000011       0x12 .build/obj_my65_default/lufa.o
 .comment       0x0000000000000011       0x12 .build/obj_my65_default/usb_descriptor.o
 .comment       0x0000000000000011       0x12 .build/obj_my65_default/lib/lufa/LUFA/Drivers/USB/Core/AVR8/Device_AVR8.o
 .comment       0x0000000000000011       0x12 .build/obj_my65_default/lib/lufa/LUFA/Drivers/USB/Core/AVR8/EndpointStream_AVR8.o
 .comment       0x0000000000000011       0x12 .build/obj_my65_default/lib/lufa/LUFA/Drivers/USB/Core/AVR8/Endpoint_AVR8.o
 .comment       0x0000000000000011       0x12 .build/obj_my65_default/lib/lufa/LUFA/Drivers/USB/Core/AVR8/USBController_AVR8.o
 .comment       0x0000000000000011       0x12 .build/obj_my65_default/lib/lufa/LUFA/Drivers/USB/Core/AVR8/USBInterrupt_AVR8.o
 .comment       0x0000000000000011       0x12 .build/obj_my65_default/lib/lufa/LUFA/Drivers/USB/Core/DeviceStandardReq.o
 .comment       0x0000000000000011       0x12 .build/obj_my65_default/lib/lufa/LUFA/Drivers/USB/Core/USBTask.o

.note.gnu.avr.deviceinfo
                0x0000000000000000       0x40
 .note.gnu.avr.deviceinfo
                0x0000000000000000       0x40 c:/qmk_msys/mingw64/bin/../lib/gcc/avr/8.5.0/../../../../avr/lib/avr5/crtatmega32u4.o

.note.gnu.build-id
 *(.note.gnu.build-id)

.debug
 *(.debug)

.line
 *(.line)

.debug_srcinfo
 *(.debug_srcinfo)

.debug_sfnames
 *(.debug_sfnames)

.debug_aranges  0x0000000000000000     0x1068
 *(.debug_aranges)
 .debug_aranges
                0x0000000000000000       0x20 .build/obj_my65_default/quantum/keymap_introspection.o
 .debug_aranges
                0x0000000000000020      0x108 .build/obj_my65_default/quantum/quantum.o
 .debug_aranges
                0x0000000000000128       0x60 .build/obj_my65_default/quantum/bitwise.o
 .debug_aranges
                0x0000000000000188       0x70 .build/obj_my65_default/quantum/led.o
 .debug_aranges
                0x00000000000001f8       0xd8 .build/obj_my65_default/quantum/action.o
 .debug_aranges
                0x00000000000002d0       0xf0 .build/obj_my65_default/quantum/action_layer.o
 .debug_aranges
                0x00000000000003c0       0x40 .build/obj_my65_default/quantum/action_tapping.o
 .debug_aranges
                0x0000000000000400      0x150 .build/obj_my65_default/quantum/action_util.o
 .debug_aranges
                0x0000000000000550       0xd8 .build/obj_my65_default/quantum/eeconfig.o
 .debug_aranges
                0x0000000000000628       0xb8 .build/obj_my65_default/quantum/keyboard.o
 .debug_aranges
                0x00000000000006e0       0x30 .build/obj_my65_default/quantum/keymap_common.o
 .debug_aranges
                0x0000000000000710       0x28 .build/obj_my65_default/quantum/keycode_config.o
 .debug_aranges
                0x0000000000000738       0x18 .build/obj_my65_default/quantum/logging/debug.o
 .debug_aranges
                0x0000000000000750       0x30 .build/obj_my65_default/quantum/bootmagic/bootmagic_lite.o
 .debug_aranges
                0x0000000000000780       0x28 .build/obj_my65_default/quantum/bootmagic/magic.o
 .debug_aranges
                0x00000000000007a8       0x90 .build/obj_my65_default/quantum/matrix_common.o
 .debug_aranges
                0x0000000000000838       0x40 .build/obj_my65_default/quantum/matrix.o
 .debug_aranges
                0x0000000000000878       0x30 .build/obj_my65_default/quantum/debounce/sym_defer_g.o
 .debug_aranges
                0x00000000000008a8       0x30 .build/obj_my65_default/quantum/main.o
 .debug_aranges
                0x00000000000008d8       0x60 .build/obj_my65_default/quantum/mousekey.o
 .debug_aranges
                0x0000000000000938       0x70 .build/obj_my65_default/quantum/via.o
 .debug_aranges
                0x00000000000009a8       0x20 .build/obj_my65_default/quantum/process_keycode/process_magic.o
 .debug_aranges
                0x00000000000009c8       0x68 .build/obj_my65_default/quantum/send_string/send_string.o
 .debug_aranges
                0x0000000000000a30       0x48 .build/obj_my65_default/quantum/command.o
 .debug_aranges
                0x0000000000000a78       0x88 .build/obj_my65_default/quantum/dynamic_keymap.o
 .debug_aranges
                0x0000000000000b00       0x20 .build/obj_my65_default/quantum/process_keycode/process_grave_esc.o
 .debug_aranges
                0x0000000000000b20       0x28 .build/obj_my65_default/quantum/process_keycode/process_space_cadet.o
 .debug_aranges
                0x0000000000000b48       0x20 .build/obj_my65_default/platforms/avr/printf.o
 .debug_aranges
                0x0000000000000b68       0x88 .build/obj_my65_default/protocol/host.o
 .debug_aranges
                0x0000000000000bf0       0x60 .build/obj_my65_default/protocol/report.o
 .debug_aranges
                0x0000000000000c50       0x40 .build/obj_my65_default/protocol/usb_device_state.o
 .debug_aranges
                0x0000000000000c90       0x38 .build/obj_my65_default/platforms/suspend.o
 .debug_aranges
                0x0000000000000cc8       0x20 .build/obj_my65_default/platforms/avr/platform.o
 .debug_aranges
                0x0000000000000ce8       0x30 .build/obj_my65_default/platforms/avr/suspend.o
 .debug_aranges
                0x0000000000000d18       0x50 .build/obj_my65_default/platforms/avr/timer.o
 .debug_aranges
                0x0000000000000d68       0x30 .build/obj_my65_default/platforms/avr/bootloaders/dfu.o
 .debug_aranges
                0x0000000000000d98       0xe0 .build/obj_my65_default/lufa.o
 .debug_aranges
                0x0000000000000e78       0x20 .build/obj_my65_default/usb_descriptor.o
 .debug_aranges
                0x0000000000000e98       0x20 .build/obj_my65_default/lib/lufa/LUFA/Drivers/USB/Core/AVR8/Device_AVR8.o
 .debug_aranges
                0x0000000000000eb8       0xc8 .build/obj_my65_default/lib/lufa/LUFA/Drivers/USB/Core/AVR8/EndpointStream_AVR8.o
 .debug_aranges
                0x0000000000000f80       0x40 .build/obj_my65_default/lib/lufa/LUFA/Drivers/USB/Core/AVR8/Endpoint_AVR8.o
 .debug_aranges
                0x0000000000000fc0       0x30 .build/obj_my65_default/lib/lufa/LUFA/Drivers/USB/Core/AVR8/USBController_AVR8.o
 .debug_aranges
                0x0000000000000ff0       0x38 .build/obj_my65_default/lib/lufa/LUFA/Drivers/USB/Core/AVR8/USBInterrupt_AVR8.o
 .debug_aranges
                0x0000000000001028       0x20 .build/obj_my65_default/lib/lufa/LUFA/Drivers/USB/Core/DeviceStandardReq.o
 .debug_aranges
                0x0000000000001048       0x20 .build/obj_my65_default/lib/lufa/LUFA/Drivers/USB/Core/USBTask.o

.debug_pubnames
 *(.debug_pubnames)

.debug_info     0x0000000000000000    0x23b88
 *(.debug_info .gnu.linkonce.wi.*)
 .debug_info    0x0000000000000000      0x9f4 c:/qmk_msys/mingw64/bin/../lib/gcc/avr/8.5.0/../../../../avr/lib/avr5/crtatmega32u4.o
 .debug_info    0x00000000000009f4      0xa07 .build/obj_my65_default/quantum/keymap_introspection.o
 .debug_info    0x00000000000013fb     0x270b .build/obj_my65_default/quantum/quantum.o
 .debug_info    0x0000000000003b06      0x309 .build/obj_my65_default/quantum/bitwise.o
 .debug_info    0x0000000000003e0f      0x5b3 .build/obj_my65_default/quantum/led.o
 .debug_info    0x00000000000043c2     0x2227 .build/obj_my65_default/quantum/action.o
 .debug_info    0x00000000000065e9     0x1034 .build/obj_my65_default/quantum/action_layer.o
 .debug_info    0x000000000000761d      0xf11 .build/obj_my65_default/quantum/action_tapping.o
 .debug_info    0x000000000000852e      0xd21 .build/obj_my65_default/quantum/action_util.o
 .debug_info    0x000000000000924f      0x906 .build/obj_my65_default/quantum/eeconfig.o
 .debug_info    0x0000000000009b55      0xde9 .build/obj_my65_default/quantum/keyboard.o
 .debug_info    0x000000000000a93e     0x1ff8 .build/obj_my65_default/quantum/keymap_common.o
 .debug_info    0x000000000000c936      0x660 .build/obj_my65_default/quantum/keycode_config.o
 .debug_info    0x000000000000cf96      0x130 .build/obj_my65_default/quantum/logging/debug.o
 .debug_info    0x000000000000d0c6      0x769 .build/obj_my65_default/quantum/bootmagic/bootmagic_lite.o
 .debug_info    0x000000000000d82f      0x576 .build/obj_my65_default/quantum/bootmagic/magic.o
 .debug_info    0x000000000000dda5      0xb6e .build/obj_my65_default/quantum/matrix_common.o
 .debug_info    0x000000000000e913      0xbe0 .build/obj_my65_default/quantum/matrix.o
 .debug_info    0x000000000000f4f3      0x7d7 .build/obj_my65_default/quantum/debounce/sym_defer_g.o
 .debug_info    0x000000000000fcca      0x1b9 .build/obj_my65_default/quantum/main.o
 .debug_info    0x000000000000fe83      0x8e1 .build/obj_my65_default/quantum/mousekey.o
 .debug_info    0x0000000000010764     0x112c .build/obj_my65_default/quantum/via.o
 .debug_info    0x0000000000011890     0x14ea .build/obj_my65_default/quantum/process_keycode/process_magic.o
 .debug_info    0x0000000000012d7a     0x13be .build/obj_my65_default/quantum/send_string/send_string.o
 .debug_info    0x0000000000014138     0x1563 .build/obj_my65_default/quantum/command.o
 .debug_info    0x000000000001569b     0x11b5 .build/obj_my65_default/quantum/dynamic_keymap.o
 .debug_info    0x0000000000016850     0x194a .build/obj_my65_default/quantum/process_keycode/process_grave_esc.o
 .debug_info    0x000000000001819a     0x19fa .build/obj_my65_default/quantum/process_keycode/process_space_cadet.o
 .debug_info    0x0000000000019b94       0xe7 .build/obj_my65_default/platforms/avr/printf.o
 .debug_info    0x0000000000019c7b      0xcfa .build/obj_my65_default/protocol/host.o
 .debug_info    0x000000000001a975      0xad3 .build/obj_my65_default/protocol/report.o
 .debug_info    0x000000000001b448      0x2a3 .build/obj_my65_default/protocol/usb_device_state.o
 .debug_info    0x000000000001b6eb      0x177 .build/obj_my65_default/platforms/suspend.o
 .debug_info    0x000000000001b862       0xa9 .build/obj_my65_default/platforms/avr/platform.o
 .debug_info    0x000000000001b90b      0x5d7 .build/obj_my65_default/platforms/avr/suspend.o
 .debug_info    0x000000000001bee2      0x443 .build/obj_my65_default/platforms/avr/timer.o
 .debug_info    0x000000000001c325      0x1f9 .build/obj_my65_default/platforms/avr/bootloaders/dfu.o
 .debug_info    0x000000000001c51e     0x2543 .build/obj_my65_default/lufa.o
 .debug_info    0x000000000001ea61      0xa99 .build/obj_my65_default/usb_descriptor.o
 .debug_info    0x000000000001f4fa      0x1c7 .build/obj_my65_default/lib/lufa/LUFA/Drivers/USB/Core/AVR8/Device_AVR8.o
 .debug_info    0x000000000001f6c1     0x1dab .build/obj_my65_default/lib/lufa/LUFA/Drivers/USB/Core/AVR8/EndpointStream_AVR8.o
 .debug_info    0x000000000002146c      0x764 .build/obj_my65_default/lib/lufa/LUFA/Drivers/USB/Core/AVR8/Endpoint_AVR8.o
 .debug_info    0x0000000000021bd0      0x60c .build/obj_my65_default/lib/lufa/LUFA/Drivers/USB/Core/AVR8/USBController_AVR8.o
 .debug_info    0x00000000000221dc      0xa4a .build/obj_my65_default/lib/lufa/LUFA/Drivers/USB/Core/AVR8/USBInterrupt_AVR8.o
 .debug_info    0x0000000000022c26      0xc60 .build/obj_my65_default/lib/lufa/LUFA/Drivers/USB/Core/DeviceStandardReq.o
 .debug_info    0x0000000000023886      0x302 .build/obj_my65_default/lib/lufa/LUFA/Drivers/USB/Core/USBTask.o

.debug_abbrev   0x0000000000000000     0x73db
 *(.debug_abbrev)
 .debug_abbrev  0x0000000000000000      0x96a c:/qmk_msys/mingw64/bin/../lib/gcc/avr/8.5.0/../../../../avr/lib/avr5/crtatmega32u4.o
 .debug_abbrev  0x000000000000096a      0x157 .build/obj_my65_default/quantum/keymap_introspection.o
 .debug_abbrev  0x0000000000000ac1      0x470 .build/obj_my65_default/quantum/quantum.o
 .debug_abbrev  0x0000000000000f31       0xea .build/obj_my65_default/quantum/bitwise.o
 .debug_abbrev  0x000000000000101b      0x22c .build/obj_my65_default/quantum/led.o
 .debug_abbrev  0x0000000000001247      0x4c6 .build/obj_my65_default/quantum/action.o
 .debug_abbrev  0x000000000000170d      0x363 .build/obj_my65_default/quantum/action_layer.o
 .debug_abbrev  0x0000000000001a70      0x34c .build/obj_my65_default/quantum/action_tapping.o
 .debug_abbrev  0x0000000000001dbc      0x343 .build/obj_my65_default/quantum/action_util.o
 .debug_abbrev  0x00000000000020ff      0x15d .build/obj_my65_default/quantum/eeconfig.o
 .debug_abbrev  0x000000000000225c      0x3da .build/obj_my65_default/quantum/keyboard.o
 .debug_abbrev  0x0000000000002636      0x2dc .build/obj_my65_default/quantum/keymap_common.o
 .debug_abbrev  0x0000000000002912      0x119 .build/obj_my65_default/quantum/keycode_config.o
 .debug_abbrev  0x0000000000002a2b       0xbb .build/obj_my65_default/quantum/logging/debug.o
 .debug_abbrev  0x0000000000002ae6      0x244 .build/obj_my65_default/quantum/bootmagic/bootmagic_lite.o
 .debug_abbrev  0x0000000000002d2a      0x191 .build/obj_my65_default/quantum/bootmagic/magic.o
 .debug_abbrev  0x0000000000002ebb      0x3b7 .build/obj_my65_default/quantum/matrix_common.o
 .debug_abbrev  0x0000000000003272      0x387 .build/obj_my65_default/quantum/matrix.o
 .debug_abbrev  0x00000000000035f9      0x292 .build/obj_my65_default/quantum/debounce/sym_defer_g.o
 .debug_abbrev  0x000000000000388b       0x85 .build/obj_my65_default/quantum/main.o
 .debug_abbrev  0x0000000000003910      0x31c .build/obj_my65_default/quantum/mousekey.o
 .debug_abbrev  0x0000000000003c2c      0x2c3 .build/obj_my65_default/quantum/via.o
 .debug_abbrev  0x0000000000003eef      0x197 .build/obj_my65_default/quantum/process_keycode/process_magic.o
 .debug_abbrev  0x0000000000004086      0x35d .build/obj_my65_default/quantum/send_string/send_string.o
 .debug_abbrev  0x00000000000043e3      0x3ac .build/obj_my65_default/quantum/command.o
 .debug_abbrev  0x000000000000478f      0x2e3 .build/obj_my65_default/quantum/dynamic_keymap.o
 .debug_abbrev  0x0000000000004a72      0x1e5 .build/obj_my65_default/quantum/process_keycode/process_grave_esc.o
 .debug_abbrev  0x0000000000004c57      0x1dd .build/obj_my65_default/quantum/process_keycode/process_space_cadet.o
 .debug_abbrev  0x0000000000004e34       0x9d .build/obj_my65_default/platforms/avr/printf.o
 .debug_abbrev  0x0000000000004ed1      0x2d5 .build/obj_my65_default/protocol/host.o
 .debug_abbrev  0x00000000000051a6      0x24d .build/obj_my65_default/protocol/report.o
 .debug_abbrev  0x00000000000053f3      0x160 .build/obj_my65_default/protocol/usb_device_state.o
 .debug_abbrev  0x0000000000005553       0xf3 .build/obj_my65_default/platforms/suspend.o
 .debug_abbrev  0x0000000000005646       0x7e .build/obj_my65_default/platforms/avr/platform.o
 .debug_abbrev  0x00000000000056c4      0x258 .build/obj_my65_default/platforms/avr/suspend.o
 .debug_abbrev  0x000000000000591c      0x1ba .build/obj_my65_default/platforms/avr/timer.o
 .debug_abbrev  0x0000000000005ad6      0x160 .build/obj_my65_default/platforms/avr/bootloaders/dfu.o
 .debug_abbrev  0x0000000000005c36      0x676 .build/obj_my65_default/lufa.o
 .debug_abbrev  0x00000000000062ac      0x207 .build/obj_my65_default/usb_descriptor.o
 .debug_abbrev  0x00000000000064b3       0xcb .build/obj_my65_default/lib/lufa/LUFA/Drivers/USB/Core/AVR8/Device_AVR8.o
 .debug_abbrev  0x000000000000657e      0x23b .build/obj_my65_default/lib/lufa/LUFA/Drivers/USB/Core/AVR8/EndpointStream_AVR8.o
 .debug_abbrev  0x00000000000067b9      0x29d .build/obj_my65_default/lib/lufa/LUFA/Drivers/USB/Core/AVR8/Endpoint_AVR8.o
 .debug_abbrev  0x0000000000006a56      0x1e7 .build/obj_my65_default/lib/lufa/LUFA/Drivers/USB/Core/AVR8/USBController_AVR8.o
 .debug_abbrev  0x0000000000006c3d      0x2a5 .build/obj_my65_default/lib/lufa/LUFA/Drivers/USB/Core/AVR8/USBInterrupt_AVR8.o
 .debug_abbrev  0x0000000000006ee2      0x346 .build/obj_my65_default/lib/lufa/LUFA/Drivers/USB/Core/DeviceStandardReq.o
 .debug_abbrev  0x0000000000007228      0x1b3 .build/obj_my65_default/lib/lufa/LUFA/Drivers/USB/Core/USBTask.o

.debug_line     0x0000000000000000    0x16fd4
 *(.debug_line .debug_line.* .debug_line_end)
 .debug_line    0x0000000000000000       0x1d c:/qmk_msys/mingw64/bin/../lib/gcc/avr/8.5.0/../../../../avr/lib/avr5/crtatmega32u4.o
 .debug_line    0x000000000000001d      0x216 .build/obj_my65_default/quantum/keymap_introspection.o
 .debug_line    0x0000000000000233      0xfc9 .build/obj_my65_default/quantum/quantum.o
 .debug_line    0x00000000000011fc      0x690 .build/obj_my65_default/quantum/bitwise.o
 .debug_line    0x000000000000188c      0x3c7 .build/obj_my65_default/quantum/led.o
 .debug_line    0x0000000000001c53     0x1497 .build/obj_my65_default/quantum/action.o
 .debug_line    0x00000000000030ea      0x9ea .build/obj_my65_default/quantum/action_layer.o
 .debug_line    0x0000000000003ad4      0xd2d .build/obj_my65_default/quantum/action_tapping.o
 .debug_line    0x0000000000004801      0xb13 .build/obj_my65_default/quantum/action_util.o
 .debug_line    0x0000000000005314      0x5ae .build/obj_my65_default/quantum/eeconfig.o
 .debug_line    0x00000000000058c2      0x839 .build/obj_my65_default/quantum/keyboard.o
 .debug_line    0x00000000000060fb      0x5b7 .build/obj_my65_default/quantum/keymap_common.o
 .debug_line    0x00000000000066b2      0x5b0 .build/obj_my65_default/quantum/keycode_config.o
 .debug_line    0x0000000000006c62       0x8a .build/obj_my65_default/quantum/logging/debug.o
 .debug_line    0x0000000000006cec      0x338 .build/obj_my65_default/quantum/bootmagic/bootmagic_lite.o
 .debug_line    0x0000000000007024      0x1fc .build/obj_my65_default/quantum/bootmagic/magic.o
 .debug_line    0x0000000000007220      0x701 .build/obj_my65_default/quantum/matrix_common.o
 .debug_line    0x0000000000007921      0x72c .build/obj_my65_default/quantum/matrix.o
 .debug_line    0x000000000000804d      0x37a .build/obj_my65_default/quantum/debounce/sym_defer_g.o
 .debug_line    0x00000000000083c7       0xf3 .build/obj_my65_default/quantum/main.o
 .debug_line    0x00000000000084ba      0xfe3 .build/obj_my65_default/quantum/mousekey.o
 .debug_line    0x000000000000949d      0xa10 .build/obj_my65_default/quantum/via.o
 .debug_line    0x0000000000009ead      0x563 .build/obj_my65_default/quantum/process_keycode/process_magic.o
 .debug_line    0x000000000000a410      0xcb7 .build/obj_my65_default/quantum/send_string/send_string.o
 .debug_line    0x000000000000b0c7      0xcb6 .build/obj_my65_default/quantum/command.o
 .debug_line    0x000000000000bd7d      0xb06 .build/obj_my65_default/quantum/dynamic_keymap.o
 .debug_line    0x000000000000c883      0x2ee .build/obj_my65_default/quantum/process_keycode/process_grave_esc.o
 .debug_line    0x000000000000cb71      0x4ab .build/obj_my65_default/quantum/process_keycode/process_space_cadet.o
 .debug_line    0x000000000000d01c       0xb1 .build/obj_my65_default/platforms/avr/printf.o
 .debug_line    0x000000000000d0cd      0x680 .build/obj_my65_default/protocol/host.o
 .debug_line    0x000000000000d74d      0x430 .build/obj_my65_default/protocol/report.o
 .debug_line    0x000000000000db7d      0x1e2 .build/obj_my65_default/protocol/usb_device_state.o
 .debug_line    0x000000000000dd5f      0x18e .build/obj_my65_default/platforms/suspend.o
 .debug_line    0x000000000000deed       0xb2 .build/obj_my65_default/platforms/avr/platform.o
 .debug_line    0x000000000000df9f      0x321 .build/obj_my65_default/platforms/avr/suspend.o
 .debug_line    0x000000000000e2c0      0x4ab .build/obj_my65_default/platforms/avr/timer.o
 .debug_line    0x000000000000e76b      0x282 .build/obj_my65_default/platforms/avr/bootloaders/dfu.o
 .debug_line    0x000000000000e9ed     0x1efe .build/obj_my65_default/lufa.o
 .debug_line    0x00000000000108eb      0x34e .build/obj_my65_default/usb_descriptor.o
 .debug_line    0x0000000000010c39      0x24c .build/obj_my65_default/lib/lufa/LUFA/Drivers/USB/Core/AVR8/Device_AVR8.o
 .debug_line    0x0000000000010e85     0x33a1 .build/obj_my65_default/lib/lufa/LUFA/Drivers/USB/Core/AVR8/EndpointStream_AVR8.o
 .debug_line    0x0000000000014226      0x9ea .build/obj_my65_default/lib/lufa/LUFA/Drivers/USB/Core/AVR8/Endpoint_AVR8.o
 .debug_line    0x0000000000014c10      0x698 .build/obj_my65_default/lib/lufa/LUFA/Drivers/USB/Core/AVR8/USBController_AVR8.o
 .debug_line    0x00000000000152a8      0xd43 .build/obj_my65_default/lib/lufa/LUFA/Drivers/USB/Core/AVR8/USBInterrupt_AVR8.o
 .debug_line    0x0000000000015feb      0xd8b .build/obj_my65_default/lib/lufa/LUFA/Drivers/USB/Core/DeviceStandardReq.o
 .debug_line    0x0000000000016d76      0x25e .build/obj_my65_default/lib/lufa/LUFA/Drivers/USB/Core/USBTask.o

.debug_frame    0x0000000000000000     0x27b0
 *(.debug_frame)
 .debug_frame   0x0000000000000000       0x24 .build/obj_my65_default/quantum/keymap_introspection.o
 .debug_frame   0x0000000000000024      0x2dc .build/obj_my65_default/quantum/quantum.o
 .debug_frame   0x0000000000000300       0xec .build/obj_my65_default/quantum/bitwise.o
 .debug_frame   0x00000000000003ec       0xe0 .build/obj_my65_default/quantum/led.o
 .debug_frame   0x00000000000004cc      0x20c .build/obj_my65_default/quantum/action.o
 .debug_frame   0x00000000000006d8      0x224 .build/obj_my65_default/quantum/action_layer.o
 .debug_frame   0x00000000000008fc       0xa8 .build/obj_my65_default/quantum/action_tapping.o
 .debug_frame   0x00000000000009a4      0x2c4 .build/obj_my65_default/quantum/action_util.o
 .debug_frame   0x0000000000000c68      0x1a4 .build/obj_my65_default/quantum/eeconfig.o
 .debug_frame   0x0000000000000e0c      0x1c4 .build/obj_my65_default/quantum/keyboard.o
 .debug_frame   0x0000000000000fd0       0x50 .build/obj_my65_default/quantum/keymap_common.o
 .debug_frame   0x0000000000001020       0x34 .build/obj_my65_default/quantum/keycode_config.o
 .debug_frame   0x0000000000001054       0x44 .build/obj_my65_default/quantum/bootmagic/bootmagic_lite.o
 .debug_frame   0x0000000000001098       0x34 .build/obj_my65_default/quantum/bootmagic/magic.o
 .debug_frame   0x00000000000010cc      0x15c .build/obj_my65_default/quantum/matrix_common.o
 .debug_frame   0x0000000000001228       0xb0 .build/obj_my65_default/quantum/matrix.o
 .debug_frame   0x00000000000012d8       0x68 .build/obj_my65_default/quantum/debounce/sym_defer_g.o
 .debug_frame   0x0000000000001340       0x44 .build/obj_my65_default/quantum/main.o
 .debug_frame   0x0000000000001384      0x110 .build/obj_my65_default/quantum/mousekey.o
 .debug_frame   0x0000000000001494       0xfc .build/obj_my65_default/quantum/via.o
 .debug_frame   0x0000000000001590       0x30 .build/obj_my65_default/quantum/process_keycode/process_magic.o
 .debug_frame   0x00000000000015c0      0x12c .build/obj_my65_default/quantum/send_string/send_string.o
 .debug_frame   0x00000000000016ec      0x1ec .build/obj_my65_default/quantum/command.o
 .debug_frame   0x00000000000018d8      0x1bc .build/obj_my65_default/quantum/dynamic_keymap.o
 .debug_frame   0x0000000000001a94       0x30 .build/obj_my65_default/quantum/process_keycode/process_grave_esc.o
 .debug_frame   0x0000000000001ac4       0x50 .build/obj_my65_default/quantum/process_keycode/process_space_cadet.o
 .debug_frame   0x0000000000001b14       0x24 .build/obj_my65_default/platforms/avr/printf.o
 .debug_frame   0x0000000000001b38      0x13c .build/obj_my65_default/protocol/host.o
 .debug_frame   0x0000000000001c74       0xa4 .build/obj_my65_default/protocol/report.o
 .debug_frame   0x0000000000001d18       0x84 .build/obj_my65_default/protocol/usb_device_state.o
 .debug_frame   0x0000000000001d9c       0x8c .build/obj_my65_default/platforms/suspend.o
 .debug_frame   0x0000000000001e28       0x24 .build/obj_my65_default/platforms/avr/platform.o
 .debug_frame   0x0000000000001e4c       0x54 .build/obj_my65_default/platforms/avr/suspend.o
 .debug_frame   0x0000000000001ea0       0xa8 .build/obj_my65_default/platforms/avr/timer.o
 .debug_frame   0x0000000000001f48       0x44 .build/obj_my65_default/platforms/avr/bootloaders/dfu.o
 .debug_frame   0x0000000000001f8c      0x1c0 .build/obj_my65_default/lufa.o
 .debug_frame   0x000000000000214c       0x24 .build/obj_my65_default/usb_descriptor.o
 .debug_frame   0x0000000000002170       0x24 .build/obj_my65_default/lib/lufa/LUFA/Drivers/USB/Core/AVR8/Device_AVR8.o
 .debug_frame   0x0000000000002194      0x404 .build/obj_my65_default/lib/lufa/LUFA/Drivers/USB/Core/AVR8/EndpointStream_AVR8.o
 .debug_frame   0x0000000000002598       0x78 .build/obj_my65_default/lib/lufa/LUFA/Drivers/USB/Core/AVR8/Endpoint_AVR8.o
 .debug_frame   0x0000000000002610       0x58 .build/obj_my65_default/lib/lufa/LUFA/Drivers/USB/Core/AVR8/USBController_AVR8.o
 .debug_frame   0x0000000000002668       0xec .build/obj_my65_default/lib/lufa/LUFA/Drivers/USB/Core/AVR8/USBInterrupt_AVR8.o
 .debug_frame   0x0000000000002754       0x30 .build/obj_my65_default/lib/lufa/LUFA/Drivers/USB/Core/DeviceStandardReq.o
 .debug_frame   0x0000000000002784       0x2c .build/obj_my65_default/lib/lufa/LUFA/Drivers/USB/Core/USBTask.o

.debug_str      0x0000000000000000     0x73c8
 *(.debug_str)
 .debug_str     0x0000000000000000      0x371 c:/qmk_msys/mingw64/bin/../lib/gcc/avr/8.5.0/../../../../avr/lib/avr5/crtatmega32u4.o
 .debug_str     0x0000000000000371      0xc0d .build/obj_my65_default/quantum/keymap_introspection.o
                                        0xc97 (size before relaxing)
 .debug_str     0x0000000000000f7e     0x1adc .build/obj_my65_default/quantum/quantum.o
                                       0x281f (size before relaxing)
 .debug_str     0x0000000000002a5a       0x5a .build/obj_my65_default/quantum/bitwise.o
                                        0x20c (size before relaxing)
 .debug_str     0x0000000000002ab4      0x13d .build/obj_my65_default/quantum/led.o
                                        0x396 (size before relaxing)
 .debug_str     0x0000000000002bf1      0xc5f .build/obj_my65_default/quantum/action.o
                                       0x1aaa (size before relaxing)
 .debug_str     0x0000000000003850      0x11a .build/obj_my65_default/quantum/action_layer.o
                                        0x88b (size before relaxing)
 .debug_str     0x000000000000396a       0xde .build/obj_my65_default/quantum/action_tapping.o
                                        0xc94 (size before relaxing)
 .debug_str     0x0000000000003a48      0x274 .build/obj_my65_default/quantum/action_util.o
                                        0x7db (size before relaxing)
 .debug_str     0x0000000000003cbc      0x296 .build/obj_my65_default/quantum/eeconfig.o
                                        0x4db (size before relaxing)
 .debug_str     0x0000000000003f52      0x385 .build/obj_my65_default/quantum/keyboard.o
                                        0xa3e (size before relaxing)
 .debug_str     0x00000000000042d7       0x64 .build/obj_my65_default/quantum/keymap_common.o
                                       0x2b48 (size before relaxing)
 .debug_str     0x000000000000433b       0x6a .build/obj_my65_default/quantum/keycode_config.o
                                        0x9d3 (size before relaxing)
 .debug_str     0x00000000000043a5       0x18 .build/obj_my65_default/quantum/logging/debug.o
                                        0x205 (size before relaxing)
 .debug_str     0x00000000000043bd       0x58 .build/obj_my65_default/quantum/bootmagic/bootmagic_lite.o
                                        0x67f (size before relaxing)
 .debug_str     0x0000000000004415       0x1a .build/obj_my65_default/quantum/bootmagic/magic.o
                                        0x5a1 (size before relaxing)
 .debug_str     0x000000000000442f      0x132 .build/obj_my65_default/quantum/matrix_common.o
                                        0x7a9 (size before relaxing)
 .debug_str     0x0000000000004561      0x106 .build/obj_my65_default/quantum/matrix.o
                                        0x790 (size before relaxing)
 .debug_str     0x0000000000004667       0xb6 .build/obj_my65_default/quantum/debounce/sym_defer_g.o
                                        0x6a4 (size before relaxing)
 .debug_str     0x000000000000471d       0x98 .build/obj_my65_default/quantum/main.o
                                        0x26e (size before relaxing)
 .debug_str     0x00000000000047b5      0x13e .build/obj_my65_default/quantum/mousekey.o
                                        0x523 (size before relaxing)
 .debug_str     0x00000000000048f3      0x42a .build/obj_my65_default/quantum/via.o
                                        0xc6c (size before relaxing)
 .debug_str     0x0000000000004d1d       0x28 .build/obj_my65_default/quantum/process_keycode/process_magic.o
                                       0x1ce5 (size before relaxing)
 .debug_str     0x0000000000004d45       0xdc .build/obj_my65_default/quantum/send_string/send_string.o
                                        0xde0 (size before relaxing)
 .debug_str     0x0000000000004e21       0xfe .build/obj_my65_default/quantum/command.o
                                        0xe61 (size before relaxing)
 .debug_str     0x0000000000004f1f       0x60 .build/obj_my65_default/quantum/dynamic_keymap.o
                                        0xed0 (size before relaxing)
 .debug_str     0x0000000000004f7f       0x42 .build/obj_my65_default/quantum/process_keycode/process_grave_esc.o
                                       0x23a4 (size before relaxing)
 .debug_str     0x0000000000004fc1       0x6d .build/obj_my65_default/quantum/process_keycode/process_space_cadet.o
                                       0x23db (size before relaxing)
 .debug_str     0x000000000000502e       0x2c .build/obj_my65_default/platforms/avr/printf.o
                                        0x1eb (size before relaxing)
 .debug_str     0x000000000000505a      0x22d .build/obj_my65_default/protocol/host.o
                                        0x918 (size before relaxing)
 .debug_str     0x0000000000005287       0x5f .build/obj_my65_default/protocol/report.o
                                        0xaf4 (size before relaxing)
 .debug_str     0x00000000000052e6      0x1ad .build/obj_my65_default/protocol/usb_device_state.o
                                        0x34e (size before relaxing)
 .debug_str     0x0000000000005493       0x80 .build/obj_my65_default/platforms/suspend.o
                                        0x269 (size before relaxing)
 .debug_str     0x0000000000005513       0x26 .build/obj_my65_default/platforms/avr/platform.o
                                        0x1d0 (size before relaxing)
 .debug_str     0x0000000000005539      0x22a .build/obj_my65_default/platforms/avr/suspend.o
                                        0x54c (size before relaxing)
 .debug_str     0x0000000000005763       0x43 .build/obj_my65_default/platforms/avr/timer.o
                                        0x260 (size before relaxing)
 .debug_str     0x00000000000057a6       0x5a .build/obj_my65_default/platforms/avr/bootloaders/dfu.o
                                        0x26e (size before relaxing)
 .debug_str     0x0000000000005800      0x6cb .build/obj_my65_default/lufa.o
                                       0x128a (size before relaxing)
 .debug_str     0x0000000000005ecb      0x73b .build/obj_my65_default/usb_descriptor.o
                                        0xc05 (size before relaxing)
 .debug_str     0x0000000000006606       0x5e .build/obj_my65_default/lib/lufa/LUFA/Drivers/USB/Core/AVR8/Device_AVR8.o
                                        0x305 (size before relaxing)
 .debug_str     0x0000000000006664      0x48b .build/obj_my65_default/lib/lufa/LUFA/Drivers/USB/Core/AVR8/EndpointStream_AVR8.o
                                        0x8f9 (size before relaxing)
 .debug_str     0x0000000000006aef      0x20d .build/obj_my65_default/lib/lufa/LUFA/Drivers/USB/Core/AVR8/Endpoint_AVR8.o
                                        0x6b9 (size before relaxing)
 .debug_str     0x0000000000006cfc      0x181 .build/obj_my65_default/lib/lufa/LUFA/Drivers/USB/Core/AVR8/USBController_AVR8.o
                                        0x5dd (size before relaxing)
 .debug_str     0x0000000000006e7d      0x10c .build/obj_my65_default/lib/lufa/LUFA/Drivers/USB/Core/AVR8/USBInterrupt_AVR8.o
                                        0x6ad (size before relaxing)
 .debug_str     0x0000000000006f89      0x3fa .build/obj_my65_default/lib/lufa/LUFA/Drivers/USB/Core/DeviceStandardReq.o
                                        0x9ea (size before relaxing)
 .debug_str     0x0000000000007383       0x45 .build/obj_my65_default/lib/lufa/LUFA/Drivers/USB/Core/USBTask.o
                                        0x40c (size before relaxing)

.debug_loc      0x0000000000000000     0xcce2
 *(.debug_loc)
 .debug_loc     0x0000000000000000      0xca0 .build/obj_my65_default/quantum/quantum.o
 .debug_loc     0x0000000000000ca0      0x532 .build/obj_my65_default/quantum/bitwise.o
 .debug_loc     0x00000000000011d2      0x13d .build/obj_my65_default/quantum/led.o
 .debug_loc     0x000000000000130f      0x8e1 .build/obj_my65_default/quantum/action.o
 .debug_loc     0x0000000000001bf0      0x81e .build/obj_my65_default/quantum/action_layer.o
 .debug_loc     0x000000000000240e      0x5a7 .build/obj_my65_default/quantum/action_tapping.o
 .debug_loc     0x00000000000029b5      0x39d .build/obj_my65_default/quantum/action_util.o
 .debug_loc     0x0000000000002d52      0x266 .build/obj_my65_default/quantum/eeconfig.o
 .debug_loc     0x0000000000002fb8      0x17a .build/obj_my65_default/quantum/keyboard.o
 .debug_loc     0x0000000000003132      0x4ce .build/obj_my65_default/quantum/keymap_common.o
 .debug_loc     0x0000000000003600      0x203 .build/obj_my65_default/quantum/keycode_config.o
 .debug_loc     0x0000000000003803       0x4e .build/obj_my65_default/quantum/bootmagic/bootmagic_lite.o
 .debug_loc     0x0000000000003851       0x15 .build/obj_my65_default/quantum/bootmagic/magic.o
 .debug_loc     0x0000000000003866      0x247 .build/obj_my65_default/quantum/matrix_common.o
 .debug_loc     0x0000000000003aad      0x578 .build/obj_my65_default/quantum/matrix.o
 .debug_loc     0x0000000000004025      0x1d8 .build/obj_my65_default/quantum/debounce/sym_defer_g.o
 .debug_loc     0x00000000000041fd      0x539 .build/obj_my65_default/quantum/mousekey.o
 .debug_loc     0x0000000000004736      0xdc5 .build/obj_my65_default/quantum/via.o
 .debug_loc     0x00000000000054fb       0xfd .build/obj_my65_default/quantum/process_keycode/process_magic.o
 .debug_loc     0x00000000000055f8      0xdd7 .build/obj_my65_default/quantum/send_string/send_string.o
 .debug_loc     0x00000000000063cf      0x8d7 .build/obj_my65_default/quantum/command.o
 .debug_loc     0x0000000000006ca6      0xc5e .build/obj_my65_default/quantum/dynamic_keymap.o
 .debug_loc     0x0000000000007904      0x143 .build/obj_my65_default/quantum/process_keycode/process_grave_esc.o
 .debug_loc     0x0000000000007a47      0x469 .build/obj_my65_default/quantum/process_keycode/process_space_cadet.o
 .debug_loc     0x0000000000007eb0      0x22b .build/obj_my65_default/protocol/host.o
 .debug_loc     0x00000000000080db      0x399 .build/obj_my65_default/protocol/report.o
 .debug_loc     0x0000000000008474      0x124 .build/obj_my65_default/protocol/usb_device_state.o
 .debug_loc     0x0000000000008598       0x52 .build/obj_my65_default/platforms/suspend.o
 .debug_loc     0x00000000000085ea       0x52 .build/obj_my65_default/platforms/avr/suspend.o
 .debug_loc     0x000000000000863c      0x2c0 .build/obj_my65_default/platforms/avr/timer.o
 .debug_loc     0x00000000000088fc       0x4e .build/obj_my65_default/platforms/avr/bootloaders/dfu.o
 .debug_loc     0x000000000000894a      0xb39 .build/obj_my65_default/lufa.o
 .debug_loc     0x0000000000009483      0x30f .build/obj_my65_default/usb_descriptor.o
 .debug_loc     0x0000000000009792     0x272e .build/obj_my65_default/lib/lufa/LUFA/Drivers/USB/Core/AVR8/EndpointStream_AVR8.o
 .debug_loc     0x000000000000bec0      0x4a0 .build/obj_my65_default/lib/lufa/LUFA/Drivers/USB/Core/AVR8/Endpoint_AVR8.o
 .debug_loc     0x000000000000c360       0xf9 .build/obj_my65_default/lib/lufa/LUFA/Drivers/USB/Core/AVR8/USBController_AVR8.o
 .debug_loc     0x000000000000c459      0x492 .build/obj_my65_default/lib/lufa/LUFA/Drivers/USB/Core/AVR8/USBInterrupt_AVR8.o
 .debug_loc     0x000000000000c8eb      0x395 .build/obj_my65_default/lib/lufa/LUFA/Drivers/USB/Core/DeviceStandardReq.o
 .debug_loc     0x000000000000cc80       0x62 .build/obj_my65_default/lib/lufa/LUFA/Drivers/USB/Core/USBTask.o

.debug_macinfo
 *(.debug_macinfo)

.debug_weaknames
 *(.debug_weaknames)

.debug_funcnames
 *(.debug_funcnames)

.debug_typenames
 *(.debug_typenames)

.debug_varnames
 *(.debug_varnames)

.debug_pubtypes
 *(.debug_pubtypes)

.debug_ranges   0x0000000000000000     0x1a68
 *(.debug_ranges)
 .debug_ranges  0x0000000000000000       0x10 .build/obj_my65_default/quantum/keymap_introspection.o
 .debug_ranges  0x0000000000000010      0x190 .build/obj_my65_default/quantum/quantum.o
 .debug_ranges  0x00000000000001a0       0x50 .build/obj_my65_default/quantum/bitwise.o
 .debug_ranges  0x00000000000001f0       0x60 .build/obj_my65_default/quantum/led.o
 .debug_ranges  0x0000000000000250      0x180 .build/obj_my65_default/quantum/action.o
 .debug_ranges  0x00000000000003d0      0x140 .build/obj_my65_default/quantum/action_layer.o
 .debug_ranges  0x0000000000000510       0xc8 .build/obj_my65_default/quantum/action_tapping.o
 .debug_ranges  0x00000000000005d8      0x140 .build/obj_my65_default/quantum/action_util.o
 .debug_ranges  0x0000000000000718       0xc8 .build/obj_my65_default/quantum/eeconfig.o
 .debug_ranges  0x00000000000007e0       0xf0 .build/obj_my65_default/quantum/keyboard.o
 .debug_ranges  0x00000000000008d0       0x20 .build/obj_my65_default/quantum/keymap_common.o
 .debug_ranges  0x00000000000008f0       0x18 .build/obj_my65_default/quantum/keycode_config.o
 .debug_ranges  0x0000000000000908       0x38 .build/obj_my65_default/quantum/bootmagic/bootmagic_lite.o
 .debug_ranges  0x0000000000000940       0x18 .build/obj_my65_default/quantum/bootmagic/magic.o
 .debug_ranges  0x0000000000000958       0xb0 .build/obj_my65_default/quantum/matrix_common.o
 .debug_ranges  0x0000000000000a08       0xc8 .build/obj_my65_default/quantum/matrix.o
 .debug_ranges  0x0000000000000ad0       0x20 .build/obj_my65_default/quantum/debounce/sym_defer_g.o
 .debug_ranges  0x0000000000000af0       0x20 .build/obj_my65_default/quantum/main.o
 .debug_ranges  0x0000000000000b10       0xd8 .build/obj_my65_default/quantum/mousekey.o
 .debug_ranges  0x0000000000000be8       0x78 .build/obj_my65_default/quantum/via.o
 .debug_ranges  0x0000000000000c60       0x10 .build/obj_my65_default/quantum/process_keycode/process_magic.o
 .debug_ranges  0x0000000000000c70      0x190 .build/obj_my65_default/quantum/send_string/send_string.o
 .debug_ranges  0x0000000000000e00      0x150 .build/obj_my65_default/quantum/command.o
 .debug_ranges  0x0000000000000f50      0x128 .build/obj_my65_default/quantum/dynamic_keymap.o
 .debug_ranges  0x0000000000001078       0x28 .build/obj_my65_default/quantum/process_keycode/process_grave_esc.o
 .debug_ranges  0x00000000000010a0       0x18 .build/obj_my65_default/quantum/process_keycode/process_space_cadet.o
 .debug_ranges  0x00000000000010b8       0x10 .build/obj_my65_default/platforms/avr/printf.o
 .debug_ranges  0x00000000000010c8       0x78 .build/obj_my65_default/protocol/host.o
 .debug_ranges  0x0000000000001140       0x68 .build/obj_my65_default/protocol/report.o
 .debug_ranges  0x00000000000011a8       0x30 .build/obj_my65_default/protocol/usb_device_state.o
 .debug_ranges  0x00000000000011d8       0x40 .build/obj_my65_default/platforms/suspend.o
 .debug_ranges  0x0000000000001218       0x10 .build/obj_my65_default/platforms/avr/platform.o
 .debug_ranges  0x0000000000001228       0x50 .build/obj_my65_default/platforms/avr/suspend.o
 .debug_ranges  0x0000000000001278       0x40 .build/obj_my65_default/platforms/avr/timer.o
 .debug_ranges  0x00000000000012b8       0x38 .build/obj_my65_default/platforms/avr/bootloaders/dfu.o
 .debug_ranges  0x00000000000012f0      0x2b0 .build/obj_my65_default/lufa.o
 .debug_ranges  0x00000000000015a0       0x28 .build/obj_my65_default/usb_descriptor.o
 .debug_ranges  0x00000000000015c8       0x10 .build/obj_my65_default/lib/lufa/LUFA/Drivers/USB/Core/AVR8/Device_AVR8.o
 .debug_ranges  0x00000000000015d8      0x1f8 .build/obj_my65_default/lib/lufa/LUFA/Drivers/USB/Core/AVR8/EndpointStream_AVR8.o
 .debug_ranges  0x00000000000017d0       0xd8 .build/obj_my65_default/lib/lufa/LUFA/Drivers/USB/Core/AVR8/Endpoint_AVR8.o
 .debug_ranges  0x00000000000018a8       0x50 .build/obj_my65_default/lib/lufa/LUFA/Drivers/USB/Core/AVR8/USBController_AVR8.o
 .debug_ranges  0x00000000000018f8       0x70 .build/obj_my65_default/lib/lufa/LUFA/Drivers/USB/Core/AVR8/USBInterrupt_AVR8.o
 .debug_ranges  0x0000000000001968       0xf0 .build/obj_my65_default/lib/lufa/LUFA/Drivers/USB/Core/DeviceStandardReq.o
 .debug_ranges  0x0000000000001a58       0x10 .build/obj_my65_default/lib/lufa/LUFA/Drivers/USB/Core/USBTask.o

.debug_addr
 *(.debug_addr)

.debug_line_str
 *(.debug_line_str)

.debug_loclists
 *(.debug_loclists)

.debug_macro
 *(.debug_macro)

.debug_names
 *(.debug_names)

.debug_rnglists
 *(.debug_rnglists)

.debug_str_offsets
 *(.debug_str_offsets)

.debug_sup
 *(.debug_sup)
OUTPUT(.build/my65_default.elf elf32-avr)
LOAD linker stubs

Cross Reference Table

Symbol                                            File
CALLBACK_HIDParser_FilterHIDReportItem            .build/obj_my65_default/lib/lufa/LUFA/Drivers/USB/Class/Common/HIDParser.o
CALLBACK_USB_GetDescriptor                        .build/obj_my65_default/lufa.o
                                                  .build/obj_my65_default/lib/lufa/LUFA/Drivers/USB/Core/DeviceStandardReq.o
ConfigurationDescriptor                           .build/obj_my65_default/usb_descriptor.o
ConsoleReport                                     .build/obj_my65_default/usb_descriptor.o
DeviceDescriptor                                  .build/obj_my65_default/usb_descriptor.o
EVENT_USB_Device_ConfigurationChanged             .build/obj_my65_default/lufa.o
                                                  .build/obj_my65_default/lib/lufa/LUFA/Drivers/USB/Core/DeviceStandardReq.o
EVENT_USB_Device_Connect                          .build/obj_my65_default/lufa.o
                                                  .build/obj_my65_default/lib/lufa/LUFA/Drivers/USB/Core/AVR8/USBInterrupt_AVR8.o
EVENT_USB_Device_ControlRequest                   .build/obj_my65_default/lufa.o
                                                  .build/obj_my65_default/lib/lufa/LUFA/Drivers/USB/Core/DeviceStandardReq.o
EVENT_USB_Device_Disconnect                       .build/obj_my65_default/lufa.o
                                                  .build/obj_my65_default/lib/lufa/LUFA/Drivers/USB/Core/AVR8/USBInterrupt_AVR8.o
EVENT_USB_Device_Reset                            .build/obj_my65_default/lufa.o
                                                  .build/obj_my65_default/lib/lufa/LUFA/Drivers/USB/Core/AVR8/USBInterrupt_AVR8.o
EVENT_USB_Device_StartOfFrame                     .build/obj_my65_default/lufa.o
                                                  .build/obj_my65_default/lib/lufa/LUFA/Drivers/USB/Core/AVR8/USBInterrupt_AVR8.o
EVENT_USB_Device_Suspend                          .build/obj_my65_default/lufa.o
                                                  .build/obj_my65_default/lib/lufa/LUFA/Drivers/USB/Core/AVR8/USBInterrupt_AVR8.o
EVENT_USB_Device_WakeUp                           .build/obj_my65_default/lufa.o
                                                  .build/obj_my65_default/lib/lufa/LUFA/Drivers/USB/Core/AVR8/USBInterrupt_AVR8.o
Endpoint_ClearEndpoints                           .build/obj_my65_default/lib/lufa/LUFA/Drivers/USB/Core/AVR8/Endpoint_AVR8.o
Endpoint_ClearStatusStage                         .build/obj_my65_default/lib/lufa/LUFA/Drivers/USB/Core/AVR8/Endpoint_AVR8.o
                                                  .build/obj_my65_default/lib/lufa/LUFA/Drivers/USB/Core/DeviceStandardReq.o
                                                  .build/obj_my65_default/lufa.o
Endpoint_ConfigureEndpointTable                   .build/obj_my65_default/lib/lufa/LUFA/Drivers/USB/Core/AVR8/Endpoint_AVR8.o
Endpoint_ConfigureEndpoint_Prv                    .build/obj_my65_default/lib/lufa/LUFA/Drivers/USB/Core/AVR8/Endpoint_AVR8.o
                                                  .build/obj_my65_default/lib/lufa/LUFA/Drivers/USB/Core/AVR8/USBInterrupt_AVR8.o
                                                  .build/obj_my65_default/lib/lufa/LUFA/Drivers/USB/Core/AVR8/USBController_AVR8.o
                                                  .build/obj_my65_default/lufa.o
Endpoint_Discard_Stream                           .build/obj_my65_default/lib/lufa/LUFA/Drivers/USB/Core/AVR8/EndpointStream_AVR8.o
Endpoint_Null_Stream                              .build/obj_my65_default/lib/lufa/LUFA/Drivers/USB/Core/AVR8/EndpointStream_AVR8.o
Endpoint_Read_Control_EStream_BE                  .build/obj_my65_default/lib/lufa/LUFA/Drivers/USB/Core/AVR8/EndpointStream_AVR8.o
Endpoint_Read_Control_EStream_LE                  .build/obj_my65_default/lib/lufa/LUFA/Drivers/USB/Core/AVR8/EndpointStream_AVR8.o
Endpoint_Read_Control_Stream_BE                   .build/obj_my65_default/lib/lufa/LUFA/Drivers/USB/Core/AVR8/EndpointStream_AVR8.o
Endpoint_Read_Control_Stream_LE                   .build/obj_my65_default/lib/lufa/LUFA/Drivers/USB/Core/AVR8/EndpointStream_AVR8.o
Endpoint_Read_EStream_BE                          .build/obj_my65_default/lib/lufa/LUFA/Drivers/USB/Core/AVR8/EndpointStream_AVR8.o
Endpoint_Read_EStream_LE                          .build/obj_my65_default/lib/lufa/LUFA/Drivers/USB/Core/AVR8/EndpointStream_AVR8.o
Endpoint_Read_Stream_BE                           .build/obj_my65_default/lib/lufa/LUFA/Drivers/USB/Core/AVR8/EndpointStream_AVR8.o
Endpoint_Read_Stream_LE                           .build/obj_my65_default/lib/lufa/LUFA/Drivers/USB/Core/AVR8/EndpointStream_AVR8.o
                                                  .build/obj_my65_default/lufa.o
Endpoint_WaitUntilReady                           .build/obj_my65_default/lib/lufa/LUFA/Drivers/USB/Core/AVR8/Endpoint_AVR8.o
                                                  .build/obj_my65_default/lib/lufa/LUFA/Drivers/USB/Core/AVR8/EndpointStream_AVR8.o
Endpoint_Write_Control_EStream_BE                 .build/obj_my65_default/lib/lufa/LUFA/Drivers/USB/Core/AVR8/EndpointStream_AVR8.o
Endpoint_Write_Control_EStream_LE                 .build/obj_my65_default/lib/lufa/LUFA/Drivers/USB/Core/AVR8/EndpointStream_AVR8.o
Endpoint_Write_Control_PStream_BE                 .build/obj_my65_default/lib/lufa/LUFA/Drivers/USB/Core/AVR8/EndpointStream_AVR8.o
Endpoint_Write_Control_PStream_LE                 .build/obj_my65_default/lib/lufa/LUFA/Drivers/USB/Core/AVR8/EndpointStream_AVR8.o
                                                  .build/obj_my65_default/lib/lufa/LUFA/Drivers/USB/Core/DeviceStandardReq.o
Endpoint_Write_Control_Stream_BE                  .build/obj_my65_default/lib/lufa/LUFA/Drivers/USB/Core/AVR8/EndpointStream_AVR8.o
Endpoint_Write_Control_Stream_LE                  .build/obj_my65_default/lib/lufa/LUFA/Drivers/USB/Core/AVR8/EndpointStream_AVR8.o
                                                  .build/obj_my65_default/lib/lufa/LUFA/Drivers/USB/Core/DeviceStandardReq.o
                                                  .build/obj_my65_default/lufa.o
Endpoint_Write_EStream_BE                         .build/obj_my65_default/lib/lufa/LUFA/Drivers/USB/Core/AVR8/EndpointStream_AVR8.o
Endpoint_Write_EStream_LE                         .build/obj_my65_default/lib/lufa/LUFA/Drivers/USB/Core/AVR8/EndpointStream_AVR8.o
Endpoint_Write_PStream_BE                         .build/obj_my65_default/lib/lufa/LUFA/Drivers/USB/Core/AVR8/EndpointStream_AVR8.o
Endpoint_Write_PStream_LE                         .build/obj_my65_default/lib/lufa/LUFA/Drivers/USB/Core/AVR8/EndpointStream_AVR8.o
Endpoint_Write_Stream_BE                          .build/obj_my65_default/lib/lufa/LUFA/Drivers/USB/Core/AVR8/EndpointStream_AVR8.o
Endpoint_Write_Stream_LE                          .build/obj_my65_default/lib/lufa/LUFA/Drivers/USB/Core/AVR8/EndpointStream_AVR8.o
                                                  .build/obj_my65_default/lufa.o
KeyboardReport                                    .build/obj_my65_default/usb_descriptor.o
LanguageString                                    .build/obj_my65_default/usb_descriptor.o
ManufacturerString                                .build/obj_my65_default/usb_descriptor.o
ProductString                                     .build/obj_my65_default/usb_descriptor.o
RawReport                                         .build/obj_my65_default/usb_descriptor.o
SharedReport                                      .build/obj_my65_default/usb_descriptor.o
USB_ControlRequest                                .build/obj_my65_default/lib/lufa/LUFA/Drivers/USB/Core/USBTask.o
                                                  .build/obj_my65_default/lib/lufa/LUFA/Drivers/USB/Core/DeviceStandardReq.o
                                                  .build/obj_my65_default/lib/lufa/LUFA/Drivers/USB/Core/AVR8/Endpoint_AVR8.o
                                                  .build/obj_my65_default/lib/lufa/LUFA/Drivers/USB/Core/AVR8/EndpointStream_AVR8.o
                                                  .build/obj_my65_default/lufa.o
USB_DeviceState                                   .build/obj_my65_default/lib/lufa/LUFA/Drivers/USB/Core/USBTask.o
                                                  .build/obj_my65_default/protocol/lufa/usb_util.o
                                                  .build/obj_my65_default/lib/lufa/LUFA/Drivers/USB/Core/DeviceStandardReq.o
                                                  .build/obj_my65_default/lib/lufa/LUFA/Drivers/USB/Core/AVR8/USBInterrupt_AVR8.o
                                                  .build/obj_my65_default/lib/lufa/LUFA/Drivers/USB/Core/AVR8/USBController_AVR8.o
                                                  .build/obj_my65_default/lib/lufa/LUFA/Drivers/USB/Core/AVR8/Endpoint_AVR8.o
                                                  .build/obj_my65_default/lib/lufa/LUFA/Drivers/USB/Core/AVR8/EndpointStream_AVR8.o
                                                  .build/obj_my65_default/lufa.o
                                                  .build/obj_my65_default/platforms/avr/suspend.o
USB_Device_ConfigurationNumber                    .build/obj_my65_default/lib/lufa/LUFA/Drivers/USB/Core/DeviceStandardReq.o
                                                  .build/obj_my65_default/lib/lufa/LUFA/Drivers/USB/Core/AVR8/USBInterrupt_AVR8.o
                                                  .build/obj_my65_default/lib/lufa/LUFA/Drivers/USB/Core/AVR8/USBController_AVR8.o
                                                  .build/obj_my65_default/lufa.o
USB_Device_CurrentlySelfPowered                   .build/obj_my65_default/lib/lufa/LUFA/Drivers/USB/Core/DeviceStandardReq.o
                                                  .build/obj_my65_default/lib/lufa/LUFA/Drivers/USB/Core/AVR8/USBController_AVR8.o
USB_Device_ProcessControlRequest                  .build/obj_my65_default/lib/lufa/LUFA/Drivers/USB/Core/DeviceStandardReq.o
                                                  .build/obj_my65_default/lib/lufa/LUFA/Drivers/USB/Core/USBTask.o
                                                  .build/obj_my65_default/lib/lufa/LUFA/Drivers/USB/Core/AVR8/USBInterrupt_AVR8.o
USB_Device_RemoteWakeupEnabled                    .build/obj_my65_default/lib/lufa/LUFA/Drivers/USB/Core/DeviceStandardReq.o
                                                  .build/obj_my65_default/lib/lufa/LUFA/Drivers/USB/Core/AVR8/USBController_AVR8.o
                                                  .build/obj_my65_default/lufa.o
USB_Device_SendRemoteWakeup                       .build/obj_my65_default/lib/lufa/LUFA/Drivers/USB/Core/AVR8/Device_AVR8.o
                                                  .build/obj_my65_default/lufa.o
USB_Disable                                       .build/obj_my65_default/lib/lufa/LUFA/Drivers/USB/Core/AVR8/USBController_AVR8.o
                                                  .build/obj_my65_default/protocol/lufa/usb_util.o
                                                  .build/obj_my65_default/lufa.o
USB_Event_Stub                                    .build/obj_my65_default/lib/lufa/LUFA/Drivers/USB/Core/Events.o
USB_Event_Stub_2                                  .build/obj_my65_default/lib/lufa/LUFA/Drivers/USB/Core/Events.o
USB_Event_Stub_3                                  .build/obj_my65_default/lib/lufa/LUFA/Drivers/USB/Core/Events.o
USB_GetHIDReportItemInfo                          .build/obj_my65_default/lib/lufa/LUFA/Drivers/USB/Class/Common/HIDParser.o
USB_GetHIDReportSize                              .build/obj_my65_default/lib/lufa/LUFA/Drivers/USB/Class/Common/HIDParser.o
USB_GetNextDescriptorComp                         .build/obj_my65_default/lib/lufa/LUFA/Drivers/USB/Core/ConfigDescriptors.o
USB_GetNextDescriptorOfType                       .build/obj_my65_default/lib/lufa/LUFA/Drivers/USB/Core/ConfigDescriptors.o
USB_GetNextDescriptorOfTypeAfter                  .build/obj_my65_default/lib/lufa/LUFA/Drivers/USB/Core/ConfigDescriptors.o
USB_GetNextDescriptorOfTypeBefore                 .build/obj_my65_default/lib/lufa/LUFA/Drivers/USB/Core/ConfigDescriptors.o
USB_INT_ClearAllInterrupts                        .build/obj_my65_default/lib/lufa/LUFA/Drivers/USB/Core/AVR8/USBInterrupt_AVR8.o
                                                  .build/obj_my65_default/lib/lufa/LUFA/Drivers/USB/Core/AVR8/USBController_AVR8.o
USB_INT_DisableAllInterrupts                      .build/obj_my65_default/lib/lufa/LUFA/Drivers/USB/Core/AVR8/USBInterrupt_AVR8.o
                                                  .build/obj_my65_default/lib/lufa/LUFA/Drivers/USB/Core/AVR8/USBController_AVR8.o
USB_Init                                          .build/obj_my65_default/lib/lufa/LUFA/Drivers/USB/Core/AVR8/USBController_AVR8.o
                                                  .build/obj_my65_default/lufa.o
USB_IsInitialized                                 .build/obj_my65_default/lib/lufa/LUFA/Drivers/USB/Core/USBTask.o
                                                  .build/obj_my65_default/lib/lufa/LUFA/Drivers/USB/Core/AVR8/USBController_AVR8.o
                                                  .build/obj_my65_default/lufa.o
USB_ProcessHIDReport                              .build/obj_my65_default/lib/lufa/LUFA/Drivers/USB/Class/Common/HIDParser.o
USB_ResetInterface                                .build/obj_my65_default/lib/lufa/LUFA/Drivers/USB/Core/AVR8/USBController_AVR8.o
USB_SetHIDReportItemInfo                          .build/obj_my65_default/lib/lufa/LUFA/Drivers/USB/Class/Common/HIDParser.o
USB_USBTask                                       .build/obj_my65_default/lib/lufa/LUFA/Drivers/USB/Core/USBTask.o
                                                  .build/obj_my65_default/lufa.o
__FUSE_REGION_LENGTH__                            c:/qmk_msys/mingw64/bin/../lib/gcc/avr/8.5.0/../../../../avr/lib/avr5/crtatmega32u4.o
__bad_interrupt                                   c:/qmk_msys/mingw64/bin/../lib/gcc/avr/8.5.0/../../../../avr/lib/avr5/crtatmega32u4.o
__bss_end                                         c:/qmk_msys/mingw64/bin/../lib/gcc/avr/8.5.0/avr5\libgcc.a(_clear_bss.o)
__bss_start                                       c:/qmk_msys/mingw64/bin/../lib/gcc/avr/8.5.0/avr5\libgcc.a(_clear_bss.o)
__bswapsi2                                        c:/qmk_msys/mingw64/bin/../lib/gcc/avr/8.5.0/avr5\libgcc.a(_bswapsi2.o)
                                                  .build/obj_my65_default/quantum/via.o
__data_end                                        c:/qmk_msys/mingw64/bin/../lib/gcc/avr/8.5.0/avr5\libgcc.a(_copy_data.o)
__data_load_start                                 c:/qmk_msys/mingw64/bin/../lib/gcc/avr/8.5.0/avr5\libgcc.a(_copy_data.o)
__data_start                                      c:/qmk_msys/mingw64/bin/../lib/gcc/avr/8.5.0/avr5\libgcc.a(_copy_data.o)
__divmodhi4                                       c:/qmk_msys/mingw64/bin/../lib/gcc/avr/8.5.0/avr5\libgcc.a(_divmodhi4.o)
                                                  .build/obj_my65_default/quantum/mousekey.o
__do_clear_bss                                    c:/qmk_msys/mingw64/bin/../lib/gcc/avr/8.5.0/avr5\libgcc.a(_clear_bss.o)
                                                  .build/obj_my65_default/lib/lufa/LUFA/Drivers/USB/Core/USBTask.o
                                                  .build/obj_my65_default/lib/lufa/LUFA/Drivers/USB/Core/DeviceStandardReq.o
                                                  .build/obj_my65_default/lufa.o
                                                  .build/obj_my65_default/platforms/avr/timer.o
                                                  .build/obj_my65_default/platforms/avr/suspend.o
                                                  .build/obj_my65_default/protocol/usb_device_state.o
                                                  .build/obj_my65_default/protocol/host.o
                                                  .build/obj_my65_default/quantum/process_keycode/process_space_cadet.o
                                                  .build/obj_my65_default/quantum/process_keycode/process_grave_esc.o
                                                  .build/obj_my65_default/quantum/command.o
                                                  .build/obj_my65_default/quantum/mousekey.o
                                                  .build/obj_my65_default/quantum/debounce/sym_defer_g.o
                                                  .build/obj_my65_default/quantum/matrix_common.o
                                                  .build/obj_my65_default/quantum/bootmagic/magic.o
                                                  .build/obj_my65_default/quantum/logging/debug.o
                                                  .build/obj_my65_default/quantum/keyboard.o
                                                  .build/obj_my65_default/quantum/action_util.o
                                                  .build/obj_my65_default/quantum/action_tapping.o
                                                  .build/obj_my65_default/quantum/action_layer.o
                                                  .build/obj_my65_default/quantum/action.o
                                                  .build/obj_my65_default/quantum/led.o
                                                  .build/obj_my65_default/quantum/quantum.o
__do_copy_data                                    c:/qmk_msys/mingw64/bin/../lib/gcc/avr/8.5.0/avr5\libgcc.a(_copy_data.o)
                                                  .build/obj_my65_default/usb_descriptor.o
                                                  .build/obj_my65_default/lufa.o
                                                  .build/obj_my65_default/quantum/command.o
                                                  .build/obj_my65_default/quantum/mousekey.o
                                                  .build/obj_my65_default/quantum/matrix.o
                                                  .build/obj_my65_default/quantum/keymap_common.o
                                                  .build/obj_my65_default/quantum/action_util.o
                                                  .build/obj_my65_default/quantum/action.o
                                                  .build/obj_my65_default/quantum/quantum.o
__epilogue_restores__                             c:/qmk_msys/mingw64/bin/../lib/gcc/avr/8.5.0/avr5\libgcc.a(_epilogue.o)
                                                  .build/obj_my65_default/lib/lufa/LUFA/Drivers/USB/Core/DeviceStandardReq.o
                                                  .build/obj_my65_default/lib/lufa/LUFA/Drivers/USB/Core/ConfigDescriptors.o
                                                  .build/obj_my65_default/lib/lufa/LUFA/Drivers/USB/Core/AVR8/EndpointStream_AVR8.o
                                                  .build/obj_my65_default/lib/lufa/LUFA/Drivers/USB/Class/Common/HIDParser.o
                                                  .build/obj_my65_default/lufa.o
                                                  .build/obj_my65_default/platforms/avr/hardware_id.o
                                                  .build/obj_my65_default/protocol/host.o
                                                  .build/obj_my65_default/quantum/dynamic_keymap.o
                                                  .build/obj_my65_default/quantum/command.o
                                                  .build/obj_my65_default/quantum/send_string/send_string.o
                                                  .build/obj_my65_default/quantum/via.o
                                                  .build/obj_my65_default/quantum/mousekey.o
                                                  .build/obj_my65_default/quantum/matrix.o
                                                  .build/obj_my65_default/quantum/matrix_common.o
                                                  .build/obj_my65_default/quantum/keyboard.o
                                                  .build/obj_my65_default/quantum/action_tapping.o
                                                  .build/obj_my65_default/quantum/action.o
                                                  .build/obj_my65_default/quantum/bitwise.o
                                                  .build/obj_my65_default/quantum/quantum.o
__fixunssfsi                                      c:/qmk_msys/mingw64/bin/../lib/gcc/avr/8.5.0/../../../../avr/lib/avr5\libm.a(fixunssfsi.o)
                                                  .build/obj_my65_default/protocol/host.o
__fp_inf                                          c:/qmk_msys/mingw64/bin/../lib/gcc/avr/8.5.0/../../../../avr/lib/avr5\libm.a(fp_inf.o)
                                                  c:/qmk_msys/mingw64/bin/../lib/gcc/avr/8.5.0/../../../../avr/lib/avr5\libm.a(mulsf3x.o)
__fp_nan                                          c:/qmk_msys/mingw64/bin/../lib/gcc/avr/8.5.0/../../../../avr/lib/avr5\libm.a(fp_nan.o)
                                                  c:/qmk_msys/mingw64/bin/../lib/gcc/avr/8.5.0/../../../../avr/lib/avr5\libm.a(mulsf3x.o)
__fp_pscA                                         c:/qmk_msys/mingw64/bin/../lib/gcc/avr/8.5.0/../../../../avr/lib/avr5\libm.a(fp_pscA.o)
                                                  c:/qmk_msys/mingw64/bin/../lib/gcc/avr/8.5.0/../../../../avr/lib/avr5\libm.a(mulsf3x.o)
__fp_pscB                                         c:/qmk_msys/mingw64/bin/../lib/gcc/avr/8.5.0/../../../../avr/lib/avr5\libm.a(fp_pscB.o)
                                                  c:/qmk_msys/mingw64/bin/../lib/gcc/avr/8.5.0/../../../../avr/lib/avr5\libm.a(mulsf3x.o)
__fp_round                                        c:/qmk_msys/mingw64/bin/../lib/gcc/avr/8.5.0/../../../../avr/lib/avr5\libm.a(fp_round.o)
                                                  c:/qmk_msys/mingw64/bin/../lib/gcc/avr/8.5.0/../../../../avr/lib/avr5\libm.a(mulsf3.o)
__fp_split3                                       c:/qmk_msys/mingw64/bin/../lib/gcc/avr/8.5.0/../../../../avr/lib/avr5\libm.a(fp_split3.o)
                                                  c:/qmk_msys/mingw64/bin/../lib/gcc/avr/8.5.0/../../../../avr/lib/avr5\libm.a(mulsf3x.o)
__fp_splitA                                       c:/qmk_msys/mingw64/bin/../lib/gcc/avr/8.5.0/../../../../avr/lib/avr5\libm.a(fp_split3.o)
                                                  c:/qmk_msys/mingw64/bin/../lib/gcc/avr/8.5.0/../../../../avr/lib/avr5\libm.a(fixunssfsi.o)
__fp_szero                                        c:/qmk_msys/mingw64/bin/../lib/gcc/avr/8.5.0/../../../../avr/lib/avr5\libm.a(fp_zero.o)
                                                  c:/qmk_msys/mingw64/bin/../lib/gcc/avr/8.5.0/../../../../avr/lib/avr5\libm.a(mulsf3x.o)
__fp_zero                                         c:/qmk_msys/mingw64/bin/../lib/gcc/avr/8.5.0/../../../../avr/lib/avr5\libm.a(fp_zero.o)
                                                  c:/qmk_msys/mingw64/bin/../lib/gcc/avr/8.5.0/../../../../avr/lib/avr5\libm.a(fixunssfsi.o)
__heap_end                                        c:/qmk_msys/mingw64/bin/../lib/gcc/avr/8.5.0/../../../../avr/lib/avr5/crtatmega32u4.o
__init                                            c:/qmk_msys/mingw64/bin/../lib/gcc/avr/8.5.0/../../../../avr/lib/avr5/crtatmega32u4.o
__mulsf3                                          c:/qmk_msys/mingw64/bin/../lib/gcc/avr/8.5.0/../../../../avr/lib/avr5\libm.a(mulsf3.o)
                                                  .build/obj_my65_default/protocol/host.o
__mulsf3_pse                                      c:/qmk_msys/mingw64/bin/../lib/gcc/avr/8.5.0/../../../../avr/lib/avr5\libm.a(mulsf3x.o)
__mulsf3x                                         c:/qmk_msys/mingw64/bin/../lib/gcc/avr/8.5.0/../../../../avr/lib/avr5\libm.a(mulsf3x.o)
                                                  c:/qmk_msys/mingw64/bin/../lib/gcc/avr/8.5.0/../../../../avr/lib/avr5\libm.a(mulsf3.o)
__prologue_saves__                                c:/qmk_msys/mingw64/bin/../lib/gcc/avr/8.5.0/avr5\libgcc.a(_prologue.o)
                                                  .build/obj_my65_default/lib/lufa/LUFA/Drivers/USB/Core/DeviceStandardReq.o
                                                  .build/obj_my65_default/lib/lufa/LUFA/Drivers/USB/Core/ConfigDescriptors.o
                                                  .build/obj_my65_default/lib/lufa/LUFA/Drivers/USB/Class/Common/HIDParser.o
                                                  .build/obj_my65_default/lufa.o
                                                  .build/obj_my65_default/platforms/avr/hardware_id.o
                                                  .build/obj_my65_default/protocol/host.o
                                                  .build/obj_my65_default/quantum/dynamic_keymap.o
                                                  .build/obj_my65_default/quantum/send_string/send_string.o
                                                  .build/obj_my65_default/quantum/mousekey.o
                                                  .build/obj_my65_default/quantum/matrix.o
                                                  .build/obj_my65_default/quantum/matrix_common.o
                                                  .build/obj_my65_default/quantum/keyboard.o
                                                  .build/obj_my65_default/quantum/action_tapping.o
                                                  .build/obj_my65_default/quantum/action.o
                                                  .build/obj_my65_default/quantum/bitwise.o
                                                  .build/obj_my65_default/quantum/quantum.o
__stack                                           c:/qmk_msys/mingw64/bin/../lib/gcc/avr/8.5.0/../../../../avr/lib/avr5/crtatmega32u4.o
__tablejump2__                                    c:/qmk_msys/mingw64/bin/../lib/gcc/avr/8.5.0/avr5\libgcc.a(_tablejump2.o)
                                                  .build/obj_my65_default/lib/lufa/LUFA/Drivers/USB/Core/DeviceStandardReq.o
                                                  .build/obj_my65_default/quantum/via.o
                                                  .build/obj_my65_default/quantum/action.o
__udivmodhi4                                      c:/qmk_msys/mingw64/bin/../lib/gcc/avr/8.5.0/avr5\libgcc.a(_udivmodhi4.o)
                                                  c:/qmk_msys/mingw64/bin/../lib/gcc/avr/8.5.0/avr5\libgcc.a(_divmodhi4.o)
__udivmodqi4                                      c:/qmk_msys/mingw64/bin/../lib/gcc/avr/8.5.0/avr5\libgcc.a(_udivmodqi4.o)
                                                  .build/obj_my65_default/lufa.o
__udivmodsi4                                      c:/qmk_msys/mingw64/bin/../lib/gcc/avr/8.5.0/avr5\libgcc.a(_udivmodsi4.o)
                                                  .build/obj_my65_default/quantum/quantum.o
__vector_1                                        c:/qmk_msys/mingw64/bin/../lib/gcc/avr/8.5.0/../../../../avr/lib/avr5/crtatmega32u4.o
__vector_10                                       .build/obj_my65_default/lib/lufa/LUFA/Drivers/USB/Core/AVR8/USBInterrupt_AVR8.o
                                                  c:/qmk_msys/mingw64/bin/../lib/gcc/avr/8.5.0/../../../../avr/lib/avr5/crtatmega32u4.o
__vector_11                                       .build/obj_my65_default/lib/lufa/LUFA/Drivers/USB/Core/AVR8/USBInterrupt_AVR8.o
                                                  c:/qmk_msys/mingw64/bin/../lib/gcc/avr/8.5.0/../../../../avr/lib/avr5/crtatmega32u4.o
__vector_12                                       .build/obj_my65_default/platforms/avr/suspend.o
                                                  c:/qmk_msys/mingw64/bin/../lib/gcc/avr/8.5.0/../../../../avr/lib/avr5/crtatmega32u4.o
__vector_13                                       c:/qmk_msys/mingw64/bin/../lib/gcc/avr/8.5.0/../../../../avr/lib/avr5/crtatmega32u4.o
__vector_14                                       c:/qmk_msys/mingw64/bin/../lib/gcc/avr/8.5.0/../../../../avr/lib/avr5/crtatmega32u4.o
__vector_15                                       c:/qmk_msys/mingw64/bin/../lib/gcc/avr/8.5.0/../../../../avr/lib/avr5/crtatmega32u4.o
__vector_16                                       c:/qmk_msys/mingw64/bin/../lib/gcc/avr/8.5.0/../../../../avr/lib/avr5/crtatmega32u4.o
__vector_17                                       c:/qmk_msys/mingw64/bin/../lib/gcc/avr/8.5.0/../../../../avr/lib/avr5/crtatmega32u4.o
__vector_18                                       c:/qmk_msys/mingw64/bin/../lib/gcc/avr/8.5.0/../../../../avr/lib/avr5/crtatmega32u4.o
__vector_19                                       c:/qmk_msys/mingw64/bin/../lib/gcc/avr/8.5.0/../../../../avr/lib/avr5/crtatmega32u4.o
__vector_2                                        c:/qmk_msys/mingw64/bin/../lib/gcc/avr/8.5.0/../../../../avr/lib/avr5/crtatmega32u4.o
__vector_20                                       c:/qmk_msys/mingw64/bin/../lib/gcc/avr/8.5.0/../../../../avr/lib/avr5/crtatmega32u4.o
__vector_21                                       .build/obj_my65_default/platforms/avr/timer.o
                                                  c:/qmk_msys/mingw64/bin/../lib/gcc/avr/8.5.0/../../../../avr/lib/avr5/crtatmega32u4.o
__vector_22                                       c:/qmk_msys/mingw64/bin/../lib/gcc/avr/8.5.0/../../../../avr/lib/avr5/crtatmega32u4.o
__vector_23                                       c:/qmk_msys/mingw64/bin/../lib/gcc/avr/8.5.0/../../../../avr/lib/avr5/crtatmega32u4.o
__vector_24                                       c:/qmk_msys/mingw64/bin/../lib/gcc/avr/8.5.0/../../../../avr/lib/avr5/crtatmega32u4.o
__vector_25                                       c:/qmk_msys/mingw64/bin/../lib/gcc/avr/8.5.0/../../../../avr/lib/avr5/crtatmega32u4.o
__vector_26                                       c:/qmk_msys/mingw64/bin/../lib/gcc/avr/8.5.0/../../../../avr/lib/avr5/crtatmega32u4.o
__vector_27                                       c:/qmk_msys/mingw64/bin/../lib/gcc/avr/8.5.0/../../../../avr/lib/avr5/crtatmega32u4.o
__vector_28                                       c:/qmk_msys/mingw64/bin/../lib/gcc/avr/8.5.0/../../../../avr/lib/avr5/crtatmega32u4.o
__vector_29                                       c:/qmk_msys/mingw64/bin/../lib/gcc/avr/8.5.0/../../../../avr/lib/avr5/crtatmega32u4.o
__vector_3                                        c:/qmk_msys/mingw64/bin/../lib/gcc/avr/8.5.0/../../../../avr/lib/avr5/crtatmega32u4.o
__vector_30                                       c:/qmk_msys/mingw64/bin/../lib/gcc/avr/8.5.0/../../../../avr/lib/avr5/crtatmega32u4.o
__vector_31                                       c:/qmk_msys/mingw64/bin/../lib/gcc/avr/8.5.0/../../../../avr/lib/avr5/crtatmega32u4.o
__vector_32                                       c:/qmk_msys/mingw64/bin/../lib/gcc/avr/8.5.0/../../../../avr/lib/avr5/crtatmega32u4.o
__vector_33                                       c:/qmk_msys/mingw64/bin/../lib/gcc/avr/8.5.0/../../../../avr/lib/avr5/crtatmega32u4.o
__vector_34                                       c:/qmk_msys/mingw64/bin/../lib/gcc/avr/8.5.0/../../../../avr/lib/avr5/crtatmega32u4.o
__vector_35                                       c:/qmk_msys/mingw64/bin/../lib/gcc/avr/8.5.0/../../../../avr/lib/avr5/crtatmega32u4.o
__vector_36                                       c:/qmk_msys/mingw64/bin/../lib/gcc/avr/8.5.0/../../../../avr/lib/avr5/crtatmega32u4.o
__vector_37                                       c:/qmk_msys/mingw64/bin/../lib/gcc/avr/8.5.0/../../../../avr/lib/avr5/crtatmega32u4.o
__vector_38                                       c:/qmk_msys/mingw64/bin/../lib/gcc/avr/8.5.0/../../../../avr/lib/avr5/crtatmega32u4.o
__vector_39                                       c:/qmk_msys/mingw64/bin/../lib/gcc/avr/8.5.0/../../../../avr/lib/avr5/crtatmega32u4.o
__vector_4                                        c:/qmk_msys/mingw64/bin/../lib/gcc/avr/8.5.0/../../../../avr/lib/avr5/crtatmega32u4.o
__vector_40                                       c:/qmk_msys/mingw64/bin/../lib/gcc/avr/8.5.0/../../../../avr/lib/avr5/crtatmega32u4.o
__vector_41                                       c:/qmk_msys/mingw64/bin/../lib/gcc/avr/8.5.0/../../../../avr/lib/avr5/crtatmega32u4.o
__vector_42                                       c:/qmk_msys/mingw64/bin/../lib/gcc/avr/8.5.0/../../../../avr/lib/avr5/crtatmega32u4.o
__vector_5                                        c:/qmk_msys/mingw64/bin/../lib/gcc/avr/8.5.0/../../../../avr/lib/avr5/crtatmega32u4.o
__vector_6                                        c:/qmk_msys/mingw64/bin/../lib/gcc/avr/8.5.0/../../../../avr/lib/avr5/crtatmega32u4.o
__vector_7                                        c:/qmk_msys/mingw64/bin/../lib/gcc/avr/8.5.0/../../../../avr/lib/avr5/crtatmega32u4.o
__vector_8                                        c:/qmk_msys/mingw64/bin/../lib/gcc/avr/8.5.0/../../../../avr/lib/avr5/crtatmega32u4.o
__vector_9                                        c:/qmk_msys/mingw64/bin/../lib/gcc/avr/8.5.0/../../../../avr/lib/avr5/crtatmega32u4.o
__vector_default                                  c:/qmk_msys/mingw64/bin/../lib/gcc/avr/8.5.0/../../../../avr/lib/avr5/crtatmega32u4.o
__vectors                                         c:/qmk_msys/mingw64/bin/../lib/gcc/avr/8.5.0/../../../../avr/lib/avr5/crtatmega32u4.o
__xprintf                                         .build/obj_my65_default/platforms/avr/xprintf.o
                                                  .build/obj_my65_default/protocol/host.o
                                                  .build/obj_my65_default/quantum/command.o
                                                  .build/obj_my65_default/quantum/mousekey.o
                                                  .build/obj_my65_default/quantum/matrix_common.o
                                                  .build/obj_my65_default/quantum/action_util.o
                                                  .build/obj_my65_default/quantum/led.o
_div                                              c:/qmk_msys/mingw64/bin/../lib/gcc/avr/8.5.0/avr5\libgcc.a(_divmodhi4.o)
_exit                                             c:/qmk_msys/mingw64/bin/../lib/gcc/avr/8.5.0/avr5\libgcc.a(_exit.o)
action_exec                                       .build/obj_my65_default/quantum/action.o
                                                  .build/obj_my65_default/quantum/keyboard.o
action_for_key                                    .build/obj_my65_default/quantum/keymap_common.o
                                                  .build/obj_my65_default/quantum/action_layer.o
action_for_keycode                                .build/obj_my65_default/quantum/keymap_common.o
action_tapping_process                            .build/obj_my65_default/quantum/action_tapping.o
                                                  .build/obj_my65_default/quantum/action.o
add_key                                           .build/obj_my65_default/quantum/action_util.o
                                                  .build/obj_my65_default/quantum/process_keycode/process_grave_esc.o
                                                  .build/obj_my65_default/quantum/action.o
add_key_byte                                      .build/obj_my65_default/protocol/report.o
add_key_to_report                                 .build/obj_my65_default/protocol/report.o
                                                  .build/obj_my65_default/quantum/action_util.o
add_mods                                          .build/obj_my65_default/quantum/action_util.o
                                                  .build/obj_my65_default/quantum/action.o
add_oneshot_mods                                  .build/obj_my65_default/quantum/action_util.o
add_weak_mods                                     .build/obj_my65_default/quantum/action_util.o
                                                  .build/obj_my65_default/quantum/action.o
ascii_to_altgr_lut                                .build/obj_my65_default/quantum/send_string/send_string.o
ascii_to_dead_lut                                 .build/obj_my65_default/quantum/send_string/send_string.o
ascii_to_keycode_lut                              .build/obj_my65_default/quantum/send_string/send_string.o
ascii_to_shift_lut                                .build/obj_my65_default/quantum/send_string/send_string.o
biton                                             .build/obj_my65_default/quantum/bitwise.o
biton16                                           .build/obj_my65_default/quantum/bitwise.o
biton32                                           .build/obj_my65_default/quantum/bitwise.o
bitpop                                            .build/obj_my65_default/quantum/bitwise.o
                                                  .build/obj_my65_default/quantum/action_util.o
bitpop16                                          .build/obj_my65_default/quantum/bitwise.o
bitpop32                                          .build/obj_my65_default/quantum/bitwise.o
bitrev                                            .build/obj_my65_default/quantum/bitwise.o
bitrev16                                          .build/obj_my65_default/quantum/bitwise.o
                                                  .build/obj_my65_default/quantum/matrix_common.o
bitrev32                                          .build/obj_my65_default/quantum/bitwise.o
bootloader_jump                                   .build/obj_my65_default/platforms/avr/bootloaders/dfu.o
                                                  .build/obj_my65_default/quantum/bootmagic/bootmagic_lite.o
                                                  .build/obj_my65_default/quantum/quantum.o
bootloader_jump_after_watchdog_reset              .build/obj_my65_default/platforms/avr/bootloaders/dfu.o
bootmagic                                         .build/obj_my65_default/quantum/bootmagic/bootmagic_lite.o
bootmagic_lite                                    .build/obj_my65_default/quantum/bootmagic/bootmagic_lite.o
bootmagic_lite_reset_eeprom                       .build/obj_my65_default/quantum/bootmagic/bootmagic_lite.o
clear_keyboard                                    .build/obj_my65_default/quantum/action.o
                                                  .build/obj_my65_default/lufa.o
                                                  .build/obj_my65_default/platforms/avr/suspend.o
                                                  .build/obj_my65_default/quantum/command.o
                                                  .build/obj_my65_default/quantum/process_keycode/process_magic.o
                                                  .build/obj_my65_default/quantum/action_tapping.o
                                                  .build/obj_my65_default/quantum/quantum.o
clear_keyboard_but_mods                           .build/obj_my65_default/quantum/action.o
clear_keyboard_but_mods_and_keys                  .build/obj_my65_default/quantum/action.o
                                                  .build/obj_my65_default/quantum/action_layer.o
clear_keys                                        .build/obj_my65_default/quantum/action_util.o
                                                  .build/obj_my65_default/quantum/action.o
clear_keys_from_report                            .build/obj_my65_default/protocol/report.o
                                                  .build/obj_my65_default/quantum/action_util.o
clear_mods                                        .build/obj_my65_default/quantum/action_util.o
                                                  .build/obj_my65_default/quantum/action.o
clear_oneshot_layer_state                         .build/obj_my65_default/quantum/action_util.o
                                                  .build/obj_my65_default/quantum/action.o
clear_oneshot_locked_mods                         .build/obj_my65_default/quantum/action_util.o
clear_oneshot_mods                                .build/obj_my65_default/quantum/action_util.o
                                                  .build/obj_my65_default/quantum/action.o
clear_weak_mods                                   .build/obj_my65_default/quantum/action_util.o
                                                  .build/obj_my65_default/quantum/action.o
command_console_extra                             .build/obj_my65_default/quantum/command.o
command_extra                                     .build/obj_my65_default/quantum/command.o
command_proc                                      .build/obj_my65_default/quantum/command.o
                                                  .build/obj_my65_default/quantum/action.o
command_state                                     .build/obj_my65_default/quantum/command.o
debounce                                          .build/obj_my65_default/quantum/debounce/sym_defer_g.o
                                                  .build/obj_my65_default/quantum/matrix.o
                                                  .build/obj_my65_default/quantum/matrix_common.o
debounce_free                                     .build/obj_my65_default/quantum/debounce/sym_defer_g.o
debounce_init                                     .build/obj_my65_default/quantum/debounce/sym_defer_g.o
                                                  .build/obj_my65_default/quantum/matrix.o
                                                  .build/obj_my65_default/quantum/matrix_common.o
debug_action                                      .build/obj_my65_default/quantum/action.o
debug_config                                      .build/obj_my65_default/quantum/logging/debug.o
                                                  .build/obj_my65_default/protocol/host.o
                                                  .build/obj_my65_default/quantum/command.o
                                                  .build/obj_my65_default/quantum/mousekey.o
                                                  .build/obj_my65_default/quantum/bootmagic/magic.o
                                                  .build/obj_my65_default/quantum/keyboard.o
                                                  .build/obj_my65_default/quantum/action_util.o
                                                  .build/obj_my65_default/quantum/led.o
                                                  .build/obj_my65_default/quantum/quantum.o
debug_event                                       .build/obj_my65_default/quantum/action.o
                                                  .build/obj_my65_default/quantum/action_tapping.o
debug_record                                      .build/obj_my65_default/quantum/action.o
                                                  .build/obj_my65_default/quantum/action_tapping.o
default_layer_and                                 .build/obj_my65_default/quantum/action_layer.o
                                                  .build/obj_my65_default/quantum/action.o
default_layer_debug                               .build/obj_my65_default/quantum/action_layer.o
                                                  .build/obj_my65_default/quantum/action.o
default_layer_or                                  .build/obj_my65_default/quantum/action_layer.o
                                                  .build/obj_my65_default/quantum/action.o
default_layer_set                                 .build/obj_my65_default/quantum/action_layer.o
                                                  .build/obj_my65_default/quantum/command.o
                                                  .build/obj_my65_default/quantum/bootmagic/magic.o
                                                  .build/obj_my65_default/quantum/action.o
                                                  .build/obj_my65_default/quantum/quantum.o
default_layer_state                               .build/obj_my65_default/quantum/action_layer.o
                                                  .build/obj_my65_default/quantum/eeconfig.o
default_layer_state_set_kb                        .build/obj_my65_default/quantum/action_layer.o
default_layer_state_set_user                      .build/obj_my65_default/quantum/action_layer.o
default_layer_xor                                 .build/obj_my65_default/quantum/action_layer.o
                                                  .build/obj_my65_default/quantum/action.o
del_key                                           .build/obj_my65_default/quantum/action_util.o
                                                  .build/obj_my65_default/quantum/process_keycode/process_grave_esc.o
                                                  .build/obj_my65_default/quantum/action.o
del_key_byte                                      .build/obj_my65_default/protocol/report.o
del_key_from_report                               .build/obj_my65_default/protocol/report.o
                                                  .build/obj_my65_default/quantum/action_util.o
del_mods                                          .build/obj_my65_default/quantum/action_util.o
                                                  .build/obj_my65_default/quantum/action.o
del_oneshot_mods                                  .build/obj_my65_default/quantum/action_util.o
del_weak_mods                                     .build/obj_my65_default/quantum/action_util.o
                                                  .build/obj_my65_default/quantum/action.o
disable_action_cache                              .build/obj_my65_default/quantum/action.o
                                                  .build/obj_my65_default/quantum/action_layer.o
                                                  .build/obj_my65_default/quantum/quantum.o
do_code16                                         .build/obj_my65_default/quantum/quantum.o
dynamic_keymap_get_buffer                         .build/obj_my65_default/quantum/dynamic_keymap.o
                                                  .build/obj_my65_default/quantum/via.o
dynamic_keymap_get_keycode                        .build/obj_my65_default/quantum/dynamic_keymap.o
                                                  .build/obj_my65_default/quantum/via.o
dynamic_keymap_get_layer_count                    .build/obj_my65_default/quantum/dynamic_keymap.o
                                                  .build/obj_my65_default/quantum/via.o
dynamic_keymap_key_to_eeprom_address              .build/obj_my65_default/quantum/dynamic_keymap.o
dynamic_keymap_macro_get_buffer                   .build/obj_my65_default/quantum/dynamic_keymap.o
                                                  .build/obj_my65_default/quantum/via.o
dynamic_keymap_macro_get_buffer_size              .build/obj_my65_default/quantum/dynamic_keymap.o
                                                  .build/obj_my65_default/quantum/via.o
dynamic_keymap_macro_get_count                    .build/obj_my65_default/quantum/dynamic_keymap.o
                                                  .build/obj_my65_default/quantum/via.o
dynamic_keymap_macro_reset                        .build/obj_my65_default/quantum/dynamic_keymap.o
                                                  .build/obj_my65_default/quantum/via.o
dynamic_keymap_macro_send                         .build/obj_my65_default/quantum/dynamic_keymap.o
                                                  .build/obj_my65_default/quantum/via.o
dynamic_keymap_macro_set_buffer                   .build/obj_my65_default/quantum/dynamic_keymap.o
                                                  .build/obj_my65_default/quantum/via.o
dynamic_keymap_reset                              .build/obj_my65_default/quantum/dynamic_keymap.o
                                                  .build/obj_my65_default/quantum/via.o
dynamic_keymap_set_buffer                         .build/obj_my65_default/quantum/dynamic_keymap.o
                                                  .build/obj_my65_default/quantum/via.o
dynamic_keymap_set_keycode                        .build/obj_my65_default/quantum/dynamic_keymap.o
                                                  .build/obj_my65_default/quantum/via.o
eeconfig_disable                                  .build/obj_my65_default/quantum/eeconfig.o
                                                  .build/obj_my65_default/quantum/bootmagic/bootmagic_lite.o
eeconfig_enable                                   .build/obj_my65_default/quantum/eeconfig.o
eeconfig_init                                     .build/obj_my65_default/quantum/eeconfig.o
                                                  .build/obj_my65_default/quantum/command.o
                                                  .build/obj_my65_default/quantum/bootmagic/magic.o
                                                  .build/obj_my65_default/quantum/quantum.o
eeconfig_init_kb                                  .build/obj_my65_default/quantum/eeconfig.o
eeconfig_init_quantum                             .build/obj_my65_default/quantum/eeconfig.o
eeconfig_init_user                                .build/obj_my65_default/quantum/eeconfig.o
eeconfig_init_via                                 .build/obj_my65_default/quantum/via.o
                                                  .build/obj_my65_default/quantum/eeconfig.o
eeconfig_is_disabled                              .build/obj_my65_default/quantum/eeconfig.o
eeconfig_is_enabled                               .build/obj_my65_default/quantum/eeconfig.o
                                                  .build/obj_my65_default/quantum/bootmagic/magic.o
eeconfig_read_audio                               .build/obj_my65_default/quantum/eeconfig.o
eeconfig_read_debug                               .build/obj_my65_default/quantum/eeconfig.o
                                                  .build/obj_my65_default/quantum/command.o
                                                  .build/obj_my65_default/quantum/bootmagic/magic.o
eeconfig_read_default_layer                       .build/obj_my65_default/quantum/eeconfig.o
                                                  .build/obj_my65_default/quantum/command.o
                                                  .build/obj_my65_default/quantum/bootmagic/magic.o
eeconfig_read_handedness                          .build/obj_my65_default/quantum/eeconfig.o
eeconfig_read_haptic                              .build/obj_my65_default/quantum/eeconfig.o
eeconfig_read_kb                                  .build/obj_my65_default/quantum/eeconfig.o
eeconfig_read_keymap                              .build/obj_my65_default/quantum/eeconfig.o
                                                  .build/obj_my65_default/quantum/command.o
                                                  .build/obj_my65_default/quantum/process_keycode/process_magic.o
                                                  .build/obj_my65_default/quantum/bootmagic/magic.o
eeconfig_read_user                                .build/obj_my65_default/quantum/eeconfig.o
eeconfig_update_audio                             .build/obj_my65_default/quantum/eeconfig.o
eeconfig_update_debug                             .build/obj_my65_default/quantum/eeconfig.o
eeconfig_update_default_layer                     .build/obj_my65_default/quantum/eeconfig.o
                                                  .build/obj_my65_default/quantum/quantum.o
eeconfig_update_handedness                        .build/obj_my65_default/quantum/eeconfig.o
                                                  .build/obj_my65_default/quantum/process_keycode/process_magic.o
eeconfig_update_haptic                            .build/obj_my65_default/quantum/eeconfig.o
eeconfig_update_kb                                .build/obj_my65_default/quantum/eeconfig.o
eeconfig_update_keymap                            .build/obj_my65_default/quantum/eeconfig.o
                                                  .build/obj_my65_default/quantum/process_keycode/process_magic.o
                                                  .build/obj_my65_default/quantum/action_util.o
eeconfig_update_user                              .build/obj_my65_default/quantum/eeconfig.o
eeprom_read_block                                 c:/qmk_msys/mingw64/bin/../lib/gcc/avr/8.5.0/../../../../avr/lib/avr5\libatmega32u4.a(eerd_block.o)
eeprom_read_blraw                                 c:/qmk_msys/mingw64/bin/../lib/gcc/avr/8.5.0/../../../../avr/lib/avr5\libatmega32u4.a(eerd_block.o)
                                                  c:/qmk_msys/mingw64/bin/../lib/gcc/avr/8.5.0/../../../../avr/lib/avr5\libatmega32u4.a(eerd_word.o)
                                                  c:/qmk_msys/mingw64/bin/../lib/gcc/avr/8.5.0/../../../../avr/lib/avr5\libatmega32u4.a(eerd_dword.o)
eeprom_read_byte                                  c:/qmk_msys/mingw64/bin/../lib/gcc/avr/8.5.0/../../../../avr/lib/avr5\libatmega32u4.a(eerd_byte.o)
                                                  .build/obj_my65_default/lib/lufa/LUFA/Drivers/USB/Core/AVR8/EndpointStream_AVR8.o
                                                  .build/obj_my65_default/quantum/dynamic_keymap.o
                                                  .build/obj_my65_default/quantum/via.o
                                                  .build/obj_my65_default/quantum/eeconfig.o
eeprom_read_dword                                 c:/qmk_msys/mingw64/bin/../lib/gcc/avr/8.5.0/../../../../avr/lib/avr5\libatmega32u4.a(eerd_dword.o)
                                                  .build/obj_my65_default/quantum/eeconfig.o
eeprom_read_float                                 c:/qmk_msys/mingw64/bin/../lib/gcc/avr/8.5.0/../../../../avr/lib/avr5\libatmega32u4.a(eerd_dword.o)
eeprom_read_word                                  c:/qmk_msys/mingw64/bin/../lib/gcc/avr/8.5.0/../../../../avr/lib/avr5\libatmega32u4.a(eerd_word.o)
                                                  .build/obj_my65_default/quantum/eeconfig.o
eeprom_update_byte                                c:/qmk_msys/mingw64/bin/../lib/gcc/avr/8.5.0/../../../../avr/lib/avr5\libatmega32u4.a(eeupd_byte.o)
                                                  c:/qmk_msys/mingw64/bin/../lib/gcc/avr/8.5.0/../../../../avr/lib/avr5\libatmega32u4.a(eeupd_word.o)
                                                  c:/qmk_msys/mingw64/bin/../lib/gcc/avr/8.5.0/../../../../avr/lib/avr5\libatmega32u4.a(eeupd_dword.o)
                                                  .build/obj_my65_default/lib/lufa/LUFA/Drivers/USB/Core/AVR8/EndpointStream_AVR8.o
                                                  .build/obj_my65_default/quantum/dynamic_keymap.o
                                                  .build/obj_my65_default/quantum/via.o
                                                  .build/obj_my65_default/quantum/eeconfig.o
eeprom_update_dword                               c:/qmk_msys/mingw64/bin/../lib/gcc/avr/8.5.0/../../../../avr/lib/avr5\libatmega32u4.a(eeupd_dword.o)
                                                  .build/obj_my65_default/quantum/eeconfig.o
eeprom_update_float                               c:/qmk_msys/mingw64/bin/../lib/gcc/avr/8.5.0/../../../../avr/lib/avr5\libatmega32u4.a(eeupd_dword.o)
eeprom_update_r18                                 c:/qmk_msys/mingw64/bin/../lib/gcc/avr/8.5.0/../../../../avr/lib/avr5\libatmega32u4.a(eeupd_byte.o)
                                                  c:/qmk_msys/mingw64/bin/../lib/gcc/avr/8.5.0/../../../../avr/lib/avr5\libatmega32u4.a(eeupd_word.o)
                                                  c:/qmk_msys/mingw64/bin/../lib/gcc/avr/8.5.0/../../../../avr/lib/avr5\libatmega32u4.a(eeupd_dword.o)
eeprom_update_word                                c:/qmk_msys/mingw64/bin/../lib/gcc/avr/8.5.0/../../../../avr/lib/avr5\libatmega32u4.a(eeupd_word.o)
                                                  .build/obj_my65_default/quantum/eeconfig.o
exit                                              c:/qmk_msys/mingw64/bin/../lib/gcc/avr/8.5.0/avr5\libgcc.a(_exit.o)
                                                  c:/qmk_msys/mingw64/bin/../lib/gcc/avr/8.5.0/../../../../avr/lib/avr5/crtatmega32u4.o
extract_mod_bits                                  .build/obj_my65_default/quantum/quantum.o
get_event_keycode                                 .build/obj_my65_default/quantum/quantum.o
get_first_key                                     .build/obj_my65_default/protocol/report.o
get_hardware_id                                   .build/obj_my65_default/platforms/avr/hardware_id.o
get_mods                                          .build/obj_my65_default/quantum/action_util.o
                                                  .build/obj_my65_default/quantum/process_keycode/process_grave_esc.o
                                                  .build/obj_my65_default/quantum/command.o
get_numeric_str                                   .build/obj_my65_default/quantum/quantum.o
get_oneshot_layer                                 .build/obj_my65_default/quantum/action_util.o
                                                  .build/obj_my65_default/quantum/action.o
get_oneshot_layer_state                           .build/obj_my65_default/quantum/action_util.o
                                                  .build/obj_my65_default/quantum/action.o
get_oneshot_locked_mods                           .build/obj_my65_default/quantum/action_util.o
get_oneshot_mods                                  .build/obj_my65_default/quantum/action_util.o
                                                  .build/obj_my65_default/quantum/action.o
get_record_keycode                                .build/obj_my65_default/quantum/quantum.o
get_u16_str                                       .build/obj_my65_default/quantum/quantum.o
get_u8_str                                        .build/obj_my65_default/quantum/quantum.o
get_usb_descriptor                                .build/obj_my65_default/usb_descriptor.o
                                                  .build/obj_my65_default/lufa.o
get_weak_mods                                     .build/obj_my65_default/quantum/action_util.o
has_anykey                                        .build/obj_my65_default/protocol/report.o
                                                  .build/obj_my65_default/quantum/action_util.o
has_anymod                                        .build/obj_my65_default/quantum/action_util.o
has_mouse_report_changed                          .build/obj_my65_default/protocol/report.o
                                                  .build/obj_my65_default/quantum/mousekey.o
has_oneshot_mods_timed_out                        .build/obj_my65_default/quantum/action_util.o
host_consumer_send                                .build/obj_my65_default/protocol/host.o
                                                  .build/obj_my65_default/quantum/action.o
host_digitizer_send                               .build/obj_my65_default/protocol/host.o
host_get_driver                                   .build/obj_my65_default/protocol/host.o
host_keyboard_led_state                           .build/obj_my65_default/protocol/host.o
host_keyboard_leds                                .build/obj_my65_default/protocol/host.o
                                                  .build/obj_my65_default/quantum/command.o
                                                  .build/obj_my65_default/quantum/action.o
                                                  .build/obj_my65_default/quantum/led.o
host_keyboard_send                                .build/obj_my65_default/protocol/host.o
                                                  .build/obj_my65_default/quantum/action_util.o
host_last_consumer_report                         .build/obj_my65_default/protocol/host.o
host_last_programmable_button_report              .build/obj_my65_default/protocol/host.o
host_last_system_report                           .build/obj_my65_default/protocol/host.o
host_mouse_send                                   .build/obj_my65_default/protocol/host.o
                                                  .build/obj_my65_default/quantum/mousekey.o
host_programmable_button_send                     .build/obj_my65_default/protocol/host.o
host_set_driver                                   .build/obj_my65_default/protocol/host.o
                                                  .build/obj_my65_default/lufa.o
host_system_send                                  .build/obj_my65_default/protocol/host.o
                                                  .build/obj_my65_default/quantum/action.o
housekeeping_task                                 .build/obj_my65_default/quantum/keyboard.o
                                                  .build/obj_my65_default/quantum/main.o
housekeeping_task_kb                              .build/obj_my65_default/quantum/keyboard.o
housekeeping_task_user                            .build/obj_my65_default/quantum/keyboard.o
is_key_pressed                                    .build/obj_my65_default/protocol/report.o
                                                  .build/obj_my65_default/quantum/action.o
is_keyboard_left                                  .build/obj_my65_default/quantum/keyboard.o
is_keyboard_master                                .build/obj_my65_default/quantum/keyboard.o
is_oneshot_enabled                                .build/obj_my65_default/quantum/action_util.o
is_oneshot_layer_active                           .build/obj_my65_default/quantum/action_util.o
                                                  .build/obj_my65_default/quantum/action.o
is_tap_action                                     .build/obj_my65_default/quantum/action.o
is_tap_record                                     .build/obj_my65_default/quantum/action.o
                                                  .build/obj_my65_default/quantum/action_tapping.o
keyboard_idle                                     .build/obj_my65_default/lufa.o
                                                  .build/obj_my65_default/quantum/command.o
keyboard_init                                     .build/obj_my65_default/quantum/keyboard.o
                                                  .build/obj_my65_default/quantum/main.o
keyboard_post_init_kb                             .build/obj_my65_default/quantum/keyboard.o
keyboard_post_init_user                           .build/obj_my65_default/quantum/keyboard.o
keyboard_pre_init_kb                              .build/obj_my65_default/quantum/keyboard.o
keyboard_pre_init_user                            .build/obj_my65_default/quantum/keyboard.o
keyboard_protocol                                 .build/obj_my65_default/lufa.o
                                                  .build/obj_my65_default/quantum/command.o
keyboard_report                                   .build/obj_my65_default/quantum/action_util.o
                                                  .build/obj_my65_default/quantum/action.o
keyboard_setup                                    .build/obj_my65_default/quantum/keyboard.o
                                                  .build/obj_my65_default/quantum/main.o
keyboard_task                                     .build/obj_my65_default/quantum/keyboard.o
                                                  .build/obj_my65_default/quantum/main.o
keycode_config                                    .build/obj_my65_default/quantum/keycode_config.o
                                                  .build/obj_my65_default/quantum/keymap_common.o
keymap_config                                     .build/obj_my65_default/quantum/bootmagic/magic.o
                                                  .build/obj_my65_default/quantum/process_keycode/process_magic.o
                                                  .build/obj_my65_default/quantum/keycode_config.o
                                                  .build/obj_my65_default/quantum/action_util.o
                                                  .build/obj_my65_default/quantum/action.o
keymap_key_to_keycode                             .build/obj_my65_default/quantum/dynamic_keymap.o
                                                  .build/obj_my65_default/quantum/keymap_common.o
                                                  .build/obj_my65_default/quantum/quantum.o
keymap_layer_count                                .build/obj_my65_default/quantum/keymap_introspection.o
                                                  .build/obj_my65_default/quantum/dynamic_keymap.o
keymaps                                           .build/obj_my65_default/quantum/keymap_introspection.o
                                                  .build/obj_my65_default/quantum/dynamic_keymap.o
                                                  .build/obj_my65_default/quantum/keymap_common.o
last_encoder_activity_elapsed                     .build/obj_my65_default/quantum/keyboard.o
last_encoder_activity_time                        .build/obj_my65_default/quantum/keyboard.o
last_encoder_activity_trigger                     .build/obj_my65_default/quantum/keyboard.o
last_input_activity_elapsed                       .build/obj_my65_default/quantum/keyboard.o
last_input_activity_time                          .build/obj_my65_default/quantum/keyboard.o
last_led_activity_elapsed                         .build/obj_my65_default/quantum/led.o
last_led_activity_time                            .build/obj_my65_default/quantum/led.o
last_matrix_activity_elapsed                      .build/obj_my65_default/quantum/keyboard.o
last_matrix_activity_time                         .build/obj_my65_default/quantum/keyboard.o
last_matrix_activity_trigger                      .build/obj_my65_default/quantum/keyboard.o
layer_and                                         .build/obj_my65_default/quantum/action_layer.o
                                                  .build/obj_my65_default/quantum/action.o
layer_clear                                       .build/obj_my65_default/quantum/action_layer.o
                                                  .build/obj_my65_default/quantum/action.o
layer_debug                                       .build/obj_my65_default/quantum/action_layer.o
                                                  .build/obj_my65_default/quantum/action.o
layer_invert                                      .build/obj_my65_default/quantum/action_layer.o
                                                  .build/obj_my65_default/quantum/action.o
layer_move                                        .build/obj_my65_default/quantum/action_layer.o
                                                  .build/obj_my65_default/quantum/action.o
layer_off                                         .build/obj_my65_default/quantum/action_layer.o
                                                  .build/obj_my65_default/quantum/via.o
                                                  .build/obj_my65_default/quantum/action_util.o
                                                  .build/obj_my65_default/quantum/action.o
layer_on                                          .build/obj_my65_default/quantum/action_layer.o
                                                  .build/obj_my65_default/quantum/via.o
                                                  .build/obj_my65_default/quantum/action_util.o
                                                  .build/obj_my65_default/quantum/action.o
layer_or                                          .build/obj_my65_default/quantum/action_layer.o
                                                  .build/obj_my65_default/quantum/action.o
layer_state                                       .build/obj_my65_default/quantum/action_layer.o
                                                  .build/obj_my65_default/quantum/bootmagic/magic.o
                                                  .build/obj_my65_default/quantum/quantum.o
layer_state_cmp                                   .build/obj_my65_default/quantum/action_layer.o
layer_state_is                                    .build/obj_my65_default/quantum/action_layer.o
layer_state_set                                   .build/obj_my65_default/quantum/action_layer.o
                                                  .build/obj_my65_default/quantum/action.o
                                                  .build/obj_my65_default/quantum/quantum.o
layer_state_set_kb                                .build/obj_my65_default/quantum/action_layer.o
                                                  .build/obj_my65_default/quantum/bootmagic/magic.o
layer_state_set_user                              .build/obj_my65_default/quantum/action_layer.o
layer_switch_get_action                           .build/obj_my65_default/quantum/action_layer.o
                                                  .build/obj_my65_default/quantum/action_tapping.o
                                                  .build/obj_my65_default/quantum/action.o
layer_switch_get_layer                            .build/obj_my65_default/quantum/action_layer.o
                                                  .build/obj_my65_default/quantum/quantum.o
layer_xor                                         .build/obj_my65_default/quantum/action_layer.o
                                                  .build/obj_my65_default/quantum/action.o
led_init_ports                                    .build/obj_my65_default/quantum/led.o
                                                  .build/obj_my65_default/quantum/keyboard.o
led_set                                           .build/obj_my65_default/quantum/led.o
                                                  .build/obj_my65_default/quantum/action.o
led_set_kb                                        .build/obj_my65_default/quantum/led.o
led_set_user                                      .build/obj_my65_default/quantum/led.o
led_suspend                                       .build/obj_my65_default/quantum/led.o
                                                  .build/obj_my65_default/quantum/quantum.o
led_task                                          .build/obj_my65_default/quantum/led.o
                                                  .build/obj_my65_default/quantum/keyboard.o
led_update_kb                                     .build/obj_my65_default/quantum/led.o
led_update_user                                   .build/obj_my65_default/quantum/led.o
led_wakeup                                        .build/obj_my65_default/quantum/led.o
                                                  .build/obj_my65_default/quantum/quantum.o
lufa_driver                                       .build/obj_my65_default/lufa.o
magic                                             .build/obj_my65_default/quantum/bootmagic/magic.o
                                                  .build/obj_my65_default/quantum/keyboard.o
main                                              .build/obj_my65_default/quantum/main.o
                                                  c:/qmk_msys/mingw64/bin/../lib/gcc/avr/8.5.0/../../../../avr/lib/avr5/crtatmega32u4.o
matrix                                            .build/obj_my65_default/quantum/matrix_common.o
                                                  .build/obj_my65_default/quantum/matrix.o
matrix_cols                                       .build/obj_my65_default/quantum/matrix_common.o
matrix_get_row                                    .build/obj_my65_default/quantum/matrix_common.o
                                                  .build/obj_my65_default/platforms/suspend.o
                                                  .build/obj_my65_default/quantum/via.o
                                                  .build/obj_my65_default/quantum/bootmagic/bootmagic_lite.o
                                                  .build/obj_my65_default/quantum/keyboard.o
matrix_init                                       .build/obj_my65_default/quantum/matrix.o
                                                  .build/obj_my65_default/quantum/matrix_common.o
                                                  .build/obj_my65_default/quantum/keyboard.o
matrix_init_custom                                .build/obj_my65_default/quantum/matrix_common.o
matrix_init_kb                                    .build/obj_my65_default/quantum/matrix_common.o
                                                  .build/obj_my65_default/quantum/quantum.o
matrix_init_pins                                  .build/obj_my65_default/quantum/matrix.o
matrix_init_quantum                               .build/obj_my65_default/quantum/quantum.o
                                                  .build/obj_my65_default/quantum/matrix.o
                                                  .build/obj_my65_default/quantum/matrix_common.o
matrix_init_user                                  .build/obj_my65_default/quantum/matrix_common.o
matrix_io_delay                                   .build/obj_my65_default/quantum/matrix_common.o
matrix_is_on                                      .build/obj_my65_default/quantum/matrix_common.o
matrix_output_select_delay                        .build/obj_my65_default/quantum/matrix_common.o
                                                  .build/obj_my65_default/quantum/matrix.o
matrix_output_unselect_delay                      .build/obj_my65_default/quantum/matrix_common.o
                                                  .build/obj_my65_default/quantum/matrix.o
matrix_power_down                                 .build/obj_my65_default/platforms/suspend.o
matrix_power_up                                   .build/obj_my65_default/platforms/suspend.o
matrix_print                                      .build/obj_my65_default/quantum/matrix_common.o
                                                  .build/obj_my65_default/quantum/keyboard.o
matrix_read_cols_on_row                           .build/obj_my65_default/quantum/matrix.o
matrix_rows                                       .build/obj_my65_default/quantum/matrix_common.o
matrix_scan                                       .build/obj_my65_default/quantum/matrix.o
                                                  .build/obj_my65_default/quantum/matrix_common.o
                                                  .build/obj_my65_default/platforms/suspend.o
                                                  .build/obj_my65_default/quantum/bootmagic/bootmagic_lite.o
                                                  .build/obj_my65_default/quantum/keyboard.o
matrix_scan_custom                                .build/obj_my65_default/quantum/matrix_common.o
matrix_scan_kb                                    .build/obj_my65_default/quantum/matrix_common.o
                                                  .build/obj_my65_default/quantum/quantum.o
matrix_scan_quantum                               .build/obj_my65_default/quantum/quantum.o
                                                  .build/obj_my65_default/quantum/matrix.o
                                                  .build/obj_my65_default/quantum/matrix_common.o
matrix_scan_user                                  .build/obj_my65_default/quantum/matrix_common.o
matrix_setup                                      .build/obj_my65_default/quantum/keyboard.o
mcu_reset                                         .build/obj_my65_default/platforms/avr/bootloaders/dfu.o
                                                  .build/obj_my65_default/quantum/quantum.o
memcmp                                            c:/qmk_msys/mingw64/bin/../lib/gcc/avr/8.5.0/../../../../avr/lib/avr5\libc.a(memcmp.o)
                                                  .build/obj_my65_default/protocol/report.o
                                                  .build/obj_my65_default/quantum/debounce/sym_defer_g.o
                                                  .build/obj_my65_default/quantum/matrix.o
                                                  .build/obj_my65_default/quantum/action_util.o
memcpy                                            c:/qmk_msys/mingw64/bin/../lib/gcc/avr/8.5.0/../../../../avr/lib/avr5\libc.a(memcpy.o)
                                                  .build/obj_my65_default/quantum/debounce/sym_defer_g.o
mk_delay                                          .build/obj_my65_default/quantum/mousekey.o
                                                  .build/obj_my65_default/quantum/command.o
mk_interval                                       .build/obj_my65_default/quantum/mousekey.o
                                                  .build/obj_my65_default/quantum/command.o
mk_max_speed                                      .build/obj_my65_default/quantum/mousekey.o
                                                  .build/obj_my65_default/quantum/command.o
mk_time_to_max                                    .build/obj_my65_default/quantum/mousekey.o
                                                  .build/obj_my65_default/quantum/command.o
mk_wheel_delay                                    .build/obj_my65_default/quantum/mousekey.o
mk_wheel_interval                                 .build/obj_my65_default/quantum/mousekey.o
mk_wheel_max_speed                                .build/obj_my65_default/quantum/mousekey.o
                                                  .build/obj_my65_default/quantum/command.o
mk_wheel_time_to_max                              .build/obj_my65_default/quantum/mousekey.o
                                                  .build/obj_my65_default/quantum/command.o
mod_config                                        .build/obj_my65_default/quantum/keycode_config.o
                                                  .build/obj_my65_default/quantum/keymap_common.o
mousekey_clear                                    .build/obj_my65_default/quantum/mousekey.o
                                                  .build/obj_my65_default/quantum/action.o
mousekey_get_report                               .build/obj_my65_default/quantum/mousekey.o
mousekey_off                                      .build/obj_my65_default/quantum/mousekey.o
                                                  .build/obj_my65_default/quantum/action.o
mousekey_on                                       .build/obj_my65_default/quantum/mousekey.o
                                                  .build/obj_my65_default/quantum/action.o
mousekey_send                                     .build/obj_my65_default/quantum/mousekey.o
                                                  .build/obj_my65_default/quantum/action.o
mousekey_task                                     .build/obj_my65_default/quantum/mousekey.o
                                                  .build/obj_my65_default/quantum/keyboard.o
notify_usb_device_state_change_kb                 .build/obj_my65_default/protocol/usb_device_state.o
notify_usb_device_state_change_user               .build/obj_my65_default/protocol/usb_device_state.o
oneshot_disable                                   .build/obj_my65_default/quantum/action_util.o
                                                  .build/obj_my65_default/quantum/quantum.o
oneshot_enable                                    .build/obj_my65_default/quantum/action_util.o
                                                  .build/obj_my65_default/quantum/quantum.o
oneshot_layer_changed_kb                          .build/obj_my65_default/quantum/action_util.o
oneshot_layer_changed_user                        .build/obj_my65_default/quantum/action_util.o
oneshot_locked_mods_changed_kb                    .build/obj_my65_default/quantum/action_util.o
oneshot_locked_mods_changed_user                  .build/obj_my65_default/quantum/action_util.o
oneshot_mods_changed_kb                           .build/obj_my65_default/quantum/action_util.o
oneshot_mods_changed_user                         .build/obj_my65_default/quantum/action_util.o
oneshot_set                                       .build/obj_my65_default/quantum/action_util.o
oneshot_toggle                                    .build/obj_my65_default/quantum/action_util.o
                                                  .build/obj_my65_default/quantum/quantum.o
peek_matrix                                       .build/obj_my65_default/quantum/matrix_common.o
perform_space_cadet                               .build/obj_my65_default/quantum/process_keycode/process_space_cadet.o
platform_setup                                    .build/obj_my65_default/platforms/avr/platform.o
                                                  .build/obj_my65_default/quantum/main.o
post_process_record_kb                            .build/obj_my65_default/quantum/quantum.o
post_process_record_quantum                       .build/obj_my65_default/quantum/quantum.o
post_process_record_user                          .build/obj_my65_default/quantum/quantum.o
pre_process_record_quantum                        .build/obj_my65_default/quantum/quantum.o
print_set_sendchar                                .build/obj_my65_default/platforms/avr/printf.o
                                                  .build/obj_my65_default/quantum/keyboard.o
process_action                                    .build/obj_my65_default/quantum/action.o
process_action_kb                                 .build/obj_my65_default/quantum/quantum.o
process_grave_esc                                 .build/obj_my65_default/quantum/process_keycode/process_grave_esc.o
                                                  .build/obj_my65_default/quantum/quantum.o
process_magic                                     .build/obj_my65_default/quantum/process_keycode/process_magic.o
                                                  .build/obj_my65_default/quantum/quantum.o
process_record                                    .build/obj_my65_default/quantum/action.o
                                                  .build/obj_my65_default/quantum/action_tapping.o
process_record_handler                            .build/obj_my65_default/quantum/action.o
process_record_kb                                 .build/obj_my65_default/quantum/quantum.o
process_record_nocache                            .build/obj_my65_default/quantum/action.o
process_record_quantum                            .build/obj_my65_default/quantum/quantum.o
process_record_tap_hint                           .build/obj_my65_default/quantum/action.o
                                                  .build/obj_my65_default/quantum/action_tapping.o
process_record_user                               .build/obj_my65_default/quantum/quantum.o
process_record_via                                .build/obj_my65_default/quantum/via.o
                                                  .build/obj_my65_default/quantum/quantum.o
process_space_cadet                               .build/obj_my65_default/quantum/process_keycode/process_space_cadet.o
                                                  .build/obj_my65_default/quantum/quantum.o
protocol_init                                     .build/obj_my65_default/quantum/main.o
protocol_post_init                                .build/obj_my65_default/lufa.o
                                                  .build/obj_my65_default/quantum/main.o
protocol_post_task                                .build/obj_my65_default/lufa.o
                                                  .build/obj_my65_default/quantum/main.o
protocol_pre_init                                 .build/obj_my65_default/lufa.o
                                                  .build/obj_my65_default/quantum/main.o
protocol_pre_task                                 .build/obj_my65_default/lufa.o
                                                  .build/obj_my65_default/quantum/main.o
protocol_setup                                    .build/obj_my65_default/lufa.o
                                                  .build/obj_my65_default/quantum/main.o
protocol_task                                     .build/obj_my65_default/quantum/main.o
quantum_init                                      .build/obj_my65_default/quantum/keyboard.o
quantum_task                                      .build/obj_my65_default/quantum/keyboard.o
raw_hid_receive                                   .build/obj_my65_default/quantum/via.o
raw_hid_receive_kb                                .build/obj_my65_default/quantum/via.o
raw_hid_send                                      .build/obj_my65_default/lufa.o
                                                  .build/obj_my65_default/quantum/via.o
raw_matrix                                        .build/obj_my65_default/quantum/matrix_common.o
                                                  .build/obj_my65_default/quantum/matrix.o
read_source_layers_cache                          .build/obj_my65_default/quantum/action_layer.o
                                                  .build/obj_my65_default/quantum/quantum.o
read_source_layers_cache_impl                     .build/obj_my65_default/quantum/action_layer.o
register_code                                     .build/obj_my65_default/quantum/action.o
                                                  .build/obj_my65_default/quantum/send_string/send_string.o
                                                  .build/obj_my65_default/quantum/quantum.o
register_code16                                   .build/obj_my65_default/quantum/quantum.o
register_mods                                     .build/obj_my65_default/quantum/action.o
                                                  .build/obj_my65_default/quantum/process_keycode/process_space_cadet.o
                                                  .build/obj_my65_default/quantum/quantum.o
register_weak_mods                                .build/obj_my65_default/quantum/action.o
                                                  .build/obj_my65_default/quantum/quantum.o
reset_key                                         .build/obj_my65_default/platforms/avr/bootloaders/dfu.o
reset_keyboard                                    .build/obj_my65_default/quantum/quantum.o
                                                  .build/obj_my65_default/quantum/command.o
reset_oneshot_layer                               .build/obj_my65_default/quantum/action_util.o
send_byte                                         .build/obj_my65_default/quantum/send_string/send_string.o
send_char                                         .build/obj_my65_default/quantum/send_string/send_string.o
send_digitizer                                    .build/obj_my65_default/lufa.o
                                                  .build/obj_my65_default/protocol/host.o
send_dword                                        .build/obj_my65_default/quantum/send_string/send_string.o
send_keyboard_report                              .build/obj_my65_default/quantum/action_util.o
                                                  .build/obj_my65_default/quantum/process_keycode/process_grave_esc.o
                                                  .build/obj_my65_default/quantum/action.o
send_nibble                                       .build/obj_my65_default/quantum/send_string/send_string.o
send_string                                       .build/obj_my65_default/quantum/send_string/send_string.o
send_string_P                                     .build/obj_my65_default/quantum/send_string/send_string.o
send_string_with_delay                            .build/obj_my65_default/quantum/send_string/send_string.o
                                                  .build/obj_my65_default/quantum/dynamic_keymap.o
send_string_with_delay_P                          .build/obj_my65_default/quantum/send_string/send_string.o
send_word                                         .build/obj_my65_default/quantum/send_string/send_string.o
sendchar                                          .build/obj_my65_default/lufa.o
                                                  .build/obj_my65_default/quantum/logging/sendchar.o
                                                  .build/obj_my65_default/quantum/keyboard.o
set_mods                                          .build/obj_my65_default/quantum/action_util.o
set_oneshot_layer                                 .build/obj_my65_default/quantum/action_util.o
                                                  .build/obj_my65_default/quantum/action.o
set_oneshot_locked_mods                           .build/obj_my65_default/quantum/action_util.o
set_oneshot_mods                                  .build/obj_my65_default/quantum/action_util.o
                                                  .build/obj_my65_default/quantum/action.o
set_single_persistent_default_layer               .build/obj_my65_default/quantum/quantum.o
set_weak_mods                                     .build/obj_my65_default/quantum/action_util.o
should_mousekey_report_send                       .build/obj_my65_default/quantum/mousekey.o
should_process_keypress                           .build/obj_my65_default/quantum/keyboard.o
shutdown_quantum                                  .build/obj_my65_default/quantum/quantum.o
shutdown_user                                     .build/obj_my65_default/quantum/quantum.o
soft_reset_keyboard                               .build/obj_my65_default/quantum/quantum.o
source_layers_cache                               .build/obj_my65_default/quantum/action_layer.o
startup_user                                      .build/obj_my65_default/quantum/quantum.o
store_or_get_action                               .build/obj_my65_default/quantum/action_layer.o
                                                  .build/obj_my65_default/quantum/action.o
suspend_power_down                                .build/obj_my65_default/platforms/avr/suspend.o
                                                  .build/obj_my65_default/lufa.o
suspend_power_down_kb                             .build/obj_my65_default/platforms/suspend.o
                                                  .build/obj_my65_default/quantum/quantum.o
suspend_power_down_quantum                        .build/obj_my65_default/quantum/quantum.o
                                                  .build/obj_my65_default/platforms/avr/suspend.o
suspend_power_down_user                           .build/obj_my65_default/platforms/suspend.o
suspend_wakeup_condition                          .build/obj_my65_default/platforms/suspend.o
                                                  .build/obj_my65_default/lufa.o
suspend_wakeup_init                               .build/obj_my65_default/platforms/avr/suspend.o
                                                  .build/obj_my65_default/lufa.o
suspend_wakeup_init_kb                            .build/obj_my65_default/platforms/suspend.o
                                                  .build/obj_my65_default/quantum/quantum.o
suspend_wakeup_init_quantum                       .build/obj_my65_default/quantum/quantum.o
                                                  .build/obj_my65_default/platforms/avr/suspend.o
suspend_wakeup_init_user                          .build/obj_my65_default/platforms/suspend.o
switch_events                                     .build/obj_my65_default/quantum/keyboard.o
tap_code                                          .build/obj_my65_default/quantum/action.o
                                                  .build/obj_my65_default/quantum/process_keycode/process_space_cadet.o
                                                  .build/obj_my65_default/quantum/send_string/send_string.o
tap_code16                                        .build/obj_my65_default/quantum/quantum.o
tap_code16_delay                                  .build/obj_my65_default/quantum/quantum.o
tap_code_delay                                    .build/obj_my65_default/quantum/action.o
tap_random_base64                                 .build/obj_my65_default/quantum/send_string/send_string.o
timer_clear                                       .build/obj_my65_default/platforms/avr/timer.o
timer_count                                       .build/obj_my65_default/platforms/avr/timer.o
                                                  .build/obj_my65_default/platforms/avr/suspend.o
timer_elapsed                                     .build/obj_my65_default/platforms/avr/timer.o
                                                  .build/obj_my65_default/quantum/process_keycode/process_space_cadet.o
                                                  .build/obj_my65_default/quantum/mousekey.o
                                                  .build/obj_my65_default/quantum/debounce/sym_defer_g.o
timer_elapsed32                                   .build/obj_my65_default/platforms/avr/timer.o
                                                  .build/obj_my65_default/quantum/keyboard.o
                                                  .build/obj_my65_default/quantum/led.o
timer_init                                        .build/obj_my65_default/platforms/avr/timer.o
                                                  .build/obj_my65_default/quantum/keyboard.o
timer_read                                        .build/obj_my65_default/platforms/avr/timer.o
                                                  .build/obj_my65_default/quantum/process_keycode/process_space_cadet.o
                                                  .build/obj_my65_default/quantum/mousekey.o
                                                  .build/obj_my65_default/quantum/debounce/sym_defer_g.o
                                                  .build/obj_my65_default/quantum/keyboard.o
timer_read32                                      .build/obj_my65_default/platforms/avr/timer.o
                                                  .build/obj_my65_default/quantum/command.o
                                                  .build/obj_my65_default/quantum/via.o
                                                  .build/obj_my65_default/quantum/keyboard.o
                                                  .build/obj_my65_default/quantum/led.o
tp_buttons                                        .build/obj_my65_default/quantum/action.o
unregister_code                                   .build/obj_my65_default/quantum/action.o
                                                  .build/obj_my65_default/quantum/send_string/send_string.o
                                                  .build/obj_my65_default/quantum/quantum.o
unregister_code16                                 .build/obj_my65_default/quantum/quantum.o
unregister_mods                                   .build/obj_my65_default/quantum/action.o
                                                  .build/obj_my65_default/quantum/process_keycode/process_space_cadet.o
                                                  .build/obj_my65_default/quantum/quantum.o
unregister_weak_mods                              .build/obj_my65_default/quantum/action.o
                                                  .build/obj_my65_default/quantum/quantum.o
update_source_layers_cache                        .build/obj_my65_default/quantum/action_layer.o
                                                  .build/obj_my65_default/quantum/quantum.o
update_source_layers_cache_impl                   .build/obj_my65_default/quantum/action_layer.o
update_tri_layer                                  .build/obj_my65_default/quantum/quantum.o
                                                  .build/obj_my65_default/quantum/via.o
update_tri_layer_state                            .build/obj_my65_default/quantum/quantum.o
usb_connected_state                               .build/obj_my65_default/protocol/lufa/usb_util.o
                                                  .build/obj_my65_default/protocol/usb_util.o
usb_device_state                                  .build/obj_my65_default/protocol/usb_device_state.o
usb_device_state_init                             .build/obj_my65_default/protocol/usb_device_state.o
                                                  .build/obj_my65_default/lufa.o
usb_device_state_set_configuration                .build/obj_my65_default/protocol/usb_device_state.o
                                                  .build/obj_my65_default/lufa.o
usb_device_state_set_reset                        .build/obj_my65_default/protocol/usb_device_state.o
                                                  .build/obj_my65_default/lufa.o
usb_device_state_set_resume                       .build/obj_my65_default/protocol/usb_device_state.o
                                                  .build/obj_my65_default/lufa.o
usb_device_state_set_suspend                      .build/obj_my65_default/protocol/usb_device_state.o
                                                  .build/obj_my65_default/lufa.o
usb_disconnect                                    .build/obj_my65_default/protocol/lufa/usb_util.o
                                                  .build/obj_my65_default/protocol/usb_util.o
usb_vbus_state                                    .build/obj_my65_default/protocol/lufa/usb_util.o
                                                  .build/obj_my65_default/protocol/usb_util.o
via_eeprom_is_valid                               .build/obj_my65_default/quantum/via.o
                                                  .build/obj_my65_default/quantum/eeconfig.o
via_eeprom_set_valid                              .build/obj_my65_default/quantum/via.o
                                                  .build/obj_my65_default/quantum/eeconfig.o
via_get_layout_options                            .build/obj_my65_default/quantum/via.o
via_init                                          .build/obj_my65_default/quantum/via.o
                                                  .build/obj_my65_default/quantum/keyboard.o
via_init_kb                                       .build/obj_my65_default/quantum/via.o
via_set_layout_options                            .build/obj_my65_default/quantum/via.o
via_set_layout_options_kb                         .build/obj_my65_default/quantum/via.o
xfunc_out                                         .build/obj_my65_default/platforms/avr/xprintf.o
                                                  .build/obj_my65_default/platforms/avr/printf.o
xitoa                                             .build/obj_my65_default/platforms/avr/xprintf.o
xputc                                             .build/obj_my65_default/platforms/avr/xprintf.o
xputs                                             .build/obj_my65_default/platforms/avr/xprintf.o
                                                  .build/obj_my65_default/lufa.o
                                                  .build/obj_my65_default/protocol/host.o
                                                  .build/obj_my65_default/quantum/command.o
                                                  .build/obj_my65_default/quantum/mousekey.o
                                                  .build/obj_my65_default/quantum/matrix_common.o
                                                  .build/obj_my65_default/quantum/led.o
                                                  .build/obj_my65_default/quantum/quantum.o
